(dp0
S'METTS MARK'
p1
(dp2
S'to_messages'
p3
I807
sS'to_ratio'
p4
F0.04708798017348203
sS'deferral_payments'
p5
S'NaN'
p6
sS'expenses'
p7
I94299
sS'comm_max'
p8
F38.0
sS'poi'
p9
I00
sS'deferred_income'
p10
g6
sS'email_address'
p11
S'mark.metts@enron.com'
p12
sS'from_poi_to_this_person'
p13
I38
sS'restricted_stock_deferred'
p14
g6
sS'shared_receipt_with_poi'
p15
I702
sS'loan_advances'
p16
g6
sS'from_messages'
p17
I29
sS'other'
p18
I1740
sS'from_ratio_log'
p19
F-3.367295829986474
sS'director_fees'
p20
g6
sS'comm_ratio'
p21
F0.08157073879417168
sS'comm2'
p22
I0
sS'bonus'
p23
I600000
sS'total_stock_value'
p24
I585062
sS'comm'
p25
I00
sS'from_this_person_to_poi'
p26
I1
sS'long_term_incentive'
p27
g6
sS'restricted_stock'
p28
I585062
sS'maildata'
p29
I01
sS'salary'
p30
I365788
sS'total_payments'
p31
I1061827
sS'comm_sum'
p32
F39.0
sS'from_ratio'
p33
F0.034482758620689655
sS'comm_min'
p34
F1.0
sS'exercised_stock_options'
p35
g6
ssS'BAXTER JOHN C'
p36
(dp37
g3
g6
sg4
I0
sg5
I1295738
sg7
I11200
sg8
I0
sg9
I00
sg10
I-1386055
sg11
g6
sg13
g6
sg14
g6
sg15
g6
sg16
g6
sg17
g6
sg18
I2660303
sg19
I0
sg20
g6
sg21
I0
sg22
I0
sg23
I1200000
sg24
I10623258
sg25
I00
sg26
g6
sg27
I1586055
sg28
I3942714
sg29
I00
sg30
I267102
sg31
I5634343
sg32
I0
sg33
I0
sg34
I0
sg35
I6680544
ssS'ELLIOTT STEVEN'
p38
(dp39
g3
g6
sg4
I0
sg5
g6
sg7
I78552
sg8
I0
sg9
I00
sg10
I-400729
sg11
S'steven.elliott@enron.com'
p40
sg13
g6
sg14
g6
sg15
g6
sg16
g6
sg17
g6
sg18
I12961
sg19
I0
sg20
g6
sg21
I0
sg22
I0
sg23
I350000
sg24
I6678735
sg25
I00
sg26
g6
sg27
g6
sg28
I1788391
sg29
I00
sg30
I170941
sg31
I211725
sg32
I0
sg33
I0
sg34
I0
sg35
I4890344
ssS'CORDES WILLIAM R'
p41
(dp42
g3
I764
sg4
F0.013089005235602094
sg5
g6
sg7
g6
sg8
F10.0
sg9
I00
sg10
g6
sg11
S'bill.cordes@enron.com'
p43
sg13
I10
sg14
g6
sg15
I58
sg16
g6
sg17
I12
sg18
g6
sg19
F0.0
sg20
g6
sg21
F0.013089005235602094
sg22
I0
sg23
g6
sg24
I1038185
sg25
I00
sg26
I0
sg27
g6
sg28
I386335
sg29
I01
sg30
g6
sg31
g6
sg32
F10.0
sg33
F0.0
sg34
F0.0
sg35
I651850
ssS'HANNON KEVIN P'
p44
(dp45
g3
I1045
sg4
F0.03062200956937799
sg5
g6
sg7
I34039
sg8
F32.0
sg9
I01
sg10
I-3117011
sg11
S'kevin.hannon@enron.com'
p46
sg13
I32
sg14
g6
sg15
I1035
sg16
g6
sg17
I32
sg18
I11350
sg19
F-0.42121346507630353
sg20
g6
sg21
F0.686872009569378
sg22
I0
sg23
I1500000
sg24
I6391065
sg25
I00
sg26
I21
sg27
I1617011
sg28
I853064
sg29
I01
sg30
I243293
sg31
I288682
sg32
F53.0
sg33
F0.65625
sg34
F21.0
sg35
I5538001
ssS'MORDAUNT KRISTINA M'
p47
(dp48
g3
g6
sg4
I0
sg5
g6
sg7
I35018
sg8
I0
sg9
I00
sg10
g6
sg11
S'kristina.mordaunt@enron.com'
p49
sg13
g6
sg14
g6
sg15
g6
sg16
g6
sg17
g6
sg18
I1411
sg19
I0
sg20
g6
sg21
I0
sg22
I0
sg23
I325000
sg24
I208510
sg25
I00
sg26
g6
sg27
g6
sg28
I208510
sg29
I00
sg30
I267093
sg31
I628522
sg32
I0
sg33
I0
sg34
I0
sg35
g6
ssS'MEYER ROCKFORD G'
p50
(dp51
g3
I232
sg4
F0.0
sg5
I1848227
sg7
g6
sg8
F0.0
sg9
I00
sg10
g6
sg11
S'rockford.meyer@enron.com'
p52
sg13
I0
sg14
g6
sg15
I22
sg16
g6
sg17
I28
sg18
g6
sg19
F0.0
sg20
g6
sg21
F0.0
sg22
I0
sg23
g6
sg24
I955873
sg25
I00
sg26
I0
sg27
g6
sg28
I462384
sg29
I01
sg30
g6
sg31
I1848227
sg32
F0.0
sg33
F0.0
sg34
F0.0
sg35
I493489
ssS'MCMAHON JEFFREY'
p53
(dp54
g3
I2355
sg4
F0.024628450106157114
sg5
g6
sg7
I137108
sg8
F58.0
sg9
I00
sg10
g6
sg11
S'jeffrey.mcmahon@enron.com'
p55
sg13
I58
sg14
g6
sg15
I2228
sg16
g6
sg17
I48
sg18
I297353
sg19
F-0.6131044728864089
sg20
g6
sg21
F0.5662951167728237
sg22
I0
sg23
I2600000
sg24
I1662855
sg25
I00
sg26
I26
sg27
I694862
sg28
I558801
sg29
I01
sg30
I370448
sg31
I4099771
sg32
F84.0
sg33
F0.5416666666666666
sg34
F26.0
sg35
I1104054
ssS'HORTON STANLEY C'
p56
(dp57
g3
I2350
sg4
F0.01872340425531915
sg5
I3131860
sg7
g6
sg8
F44.0
sg9
I00
sg10
g6
sg11
S'stanley.horton@enron.com'
p58
sg13
I44
sg14
g6
sg15
I1074
sg16
g6
sg17
I1073
sg18
g6
sg19
F-4.270163541528488
sg20
g6
sg21
F0.032702900993436576
sg22
I0
sg23
g6
sg24
I7256648
sg25
I00
sg26
I15
sg27
g6
sg28
I2046079
sg29
I01
sg30
g6
sg31
I3131860
sg32
F59.0
sg33
F0.013979496738117428
sg34
F15.0
sg35
I5210569
ssS'PIPER GREGORY F'
p59
(dp60
g3
I1238
sg4
F0.049273021001615507
sg5
I1130036
sg7
I43057
sg8
F61.0
sg9
I00
sg10
I-33333
sg11
S'greg.piper@enron.com'
p61
sg13
I61
sg14
I-409554
sg15
I742
sg16
g6
sg17
I222
sg18
I778
sg19
F-1.5314763709643884
sg20
g6
sg21
F0.26548923721783174
sg22
I2
sg23
I400000
sg24
I880290
sg25
I00
sg26
I48
sg27
g6
sg28
I409554
sg29
I01
sg30
I197091
sg31
I1737629
sg32
F109.0
sg33
F0.21621621621621623
sg34
F48.0
sg35
I880290
ssS'HUMPHREY GENE E'
p62
(dp63
g3
I128
sg4
F0.078125
sg5
I2964506
sg7
I4994
sg8
F17.0
sg9
I00
sg10
g6
sg11
S'gene.humphrey@enron.com'
p64
sg13
I10
sg14
g6
sg15
I119
sg16
g6
sg17
I17
sg18
g6
sg19
F0.0
sg20
g6
sg21
F1.078125
sg22
I0
sg23
g6
sg24
I2282768
sg25
I00
sg26
I17
sg27
g6
sg28
g6
sg29
I01
sg30
I130724
sg31
I3100224
sg32
F27.0
sg33
F1.0
sg34
F10.0
sg35
I2282768
ssS'UMANOFF ADAM S'
p65
(dp66
g3
I111
sg4
F0.10810810810810811
sg5
g6
sg7
I53122
sg8
F12.0
sg9
I00
sg10
g6
sg11
S'adam.umanoff@enron.com'
p67
sg13
I12
sg14
g6
sg15
I41
sg16
g6
sg17
I18
sg18
g6
sg19
F0.0
sg20
g6
sg21
F0.10810810810810811
sg22
I0
sg23
I788750
sg24
g6
sg25
I00
sg26
I0
sg27
g6
sg28
g6
sg29
I01
sg30
I288589
sg31
I1130461
sg32
F12.0
sg33
F0.0
sg34
F0.0
sg35
g6
ssS'BLACHMAN JEREMY M'
p68
(dp69
g3
I2475
sg4
F0.010101010101010102
sg5
g6
sg7
I84208
sg8
F25.0
sg9
I00
sg10
g6
sg11
S'jeremy.blachman@enron.com'
p70
sg13
I25
sg14
g6
sg15
I2326
sg16
g6
sg17
I14
sg18
I272
sg19
F-1.9459101490553135
sg20
g6
sg21
F0.15295815295815296
sg22
I0
sg23
I850000
sg24
I954354
sg25
I00
sg26
I2
sg27
I831809
sg28
I189041
sg29
I01
sg30
I248546
sg31
I2014835
sg32
F27.0
sg33
F0.14285714285714285
sg34
F2.0
sg35
I765313
ssS'SUNDE MARTIN'
p71
(dp72
g3
I2647
sg4
F0.013978088401964487
sg5
g6
sg7
g6
sg8
F37.0
sg9
I00
sg10
g6
sg11
S'marty.sunde@enron.com'
p73
sg13
I37
sg14
g6
sg15
I2565
sg16
g6
sg17
I38
sg18
I111122
sg19
F-1.072636802264849
sg20
g6
sg21
F0.3560833515598592
sg22
I0
sg23
I700000
sg24
I698920
sg25
I00
sg26
I13
sg27
I476451
sg28
I698920
sg29
I01
sg30
I257486
sg31
I1545059
sg32
F50.0
sg33
F0.34210526315789475
sg34
F13.0
sg35
g6
ssS'GIBBS DANA R'
p74
(dp75
g3
I169
sg4
F0.0
sg5
I504610
sg7
g6
sg8
F0.0
sg9
I00
sg10
g6
sg11
S'dana.gibbs@enron.com'
p76
sg13
I0
sg14
g6
sg15
I23
sg16
g6
sg17
I12
sg18
g6
sg19
F0.0
sg20
g6
sg21
F0.0
sg22
I0
sg23
g6
sg24
I2218275
sg25
I00
sg26
I0
sg27
I461912
sg28
g6
sg29
I01
sg30
g6
sg31
I966522
sg32
F0.0
sg33
F0.0
sg34
F0.0
sg35
I2218275
ssS'LOWRY CHARLES P'
p77
(dp78
g3
g6
sg4
I0
sg5
g6
sg7
g6
sg8
I0
sg9
I00
sg10
g6
sg11
g6
sg13
g6
sg14
I-153686
sg15
g6
sg16
g6
sg17
g6
sg18
g6
sg19
I0
sg20
g6
sg21
I0
sg22
I0
sg23
g6
sg24
I372205
sg25
I00
sg26
g6
sg27
g6
sg28
I153686
sg29
I00
sg30
g6
sg31
g6
sg32
I0
sg33
I0
sg34
I0
sg35
I372205
ssS'COLWELL WESLEY'
p79
(dp80
g3
I1758
sg4
F0.13651877133105803
sg5
I27610
sg7
I16514
sg8
F240.0
sg9
I01
sg10
I-144062
sg11
S'wes.colwell@enron.com'
p81
sg13
I240
sg14
g6
sg15
I1132
sg16
g6
sg17
I40
sg18
I101740
sg19
F-1.2909841813155656
sg20
g6
sg21
F0.4115187713310581
sg22
I0
sg23
I1200000
sg24
I698242
sg25
I00
sg26
I11
sg27
g6
sg28
I698242
sg29
I01
sg30
I288542
sg31
I1490344
sg32
F251.0
sg33
F0.275
sg34
F11.0
sg35
g6
ssS'MULLER MARK S'
p82
(dp83
g3
I136
sg4
F0.08823529411764706
sg5
I842924
sg7
g6
sg8
F12.0
sg9
I00
sg10
I-719000
sg11
S's..muller@enron.com'
p84
sg13
I12
sg14
g6
sg15
I114
sg16
g6
sg17
I16
sg18
I947
sg19
F0.0
sg20
g6
sg21
F0.08823529411764706
sg22
I0
sg23
I1100000
sg24
I1416848
sg25
I00
sg26
I0
sg27
I1725545
sg28
I360528
sg29
I01
sg30
I251654
sg31
I3202070
sg32
F12.0
sg33
F0.0
sg34
F0.0
sg35
I1056320
ssS'JACKSON CHARLENE R'
p85
(dp86
g3
I258
sg4
F0.09689922480620156
sg5
g6
sg7
I10181
sg8
F25.0
sg9
I00
sg10
g6
sg11
S'charlene.jackson@enron.com'
p87
sg13
I25
sg14
g6
sg15
I117
sg16
g6
sg17
I56
sg18
I2435
sg19
F-1.0809127115687087
sg20
g6
sg21
F0.43618493909191586
sg22
I0
sg23
I250000
sg24
I725735
sg25
I00
sg26
I19
sg27
g6
sg28
I540672
sg29
I01
sg30
I288558
sg31
I551174
sg32
F44.0
sg33
F0.3392857142857143
sg34
F19.0
sg35
I185063
ssS'WESTFAHL RICHARD K'
p88
(dp89
g3
g6
sg4
I0
sg5
g6
sg7
I51870
sg8
I0
sg9
I00
sg10
I-10800
sg11
S'dick.westfahl@enron.com'
p90
sg13
g6
sg14
g6
sg15
g6
sg16
g6
sg17
g6
sg18
I401130
sg19
I0
sg20
g6
sg21
I0
sg22
I0
sg23
g6
sg24
I384930
sg25
I00
sg26
g6
sg27
I256191
sg28
I384930
sg29
I00
sg30
I63744
sg31
I762135
sg32
I0
sg33
I0
sg34
I0
sg35
g6
ssS'WALTERS GARETH W'
p91
(dp92
g3
g6
sg4
I0
sg5
I53625
sg7
I33785
sg8
I0
sg9
I00
sg10
g6
sg11
g6
sg13
g6
sg14
g6
sg15
g6
sg16
g6
sg17
g6
sg18
g6
sg19
I0
sg20
g6
sg21
I0
sg22
I0
sg23
g6
sg24
I1030329
sg25
I00
sg26
g6
sg27
g6
sg28
g6
sg29
I00
sg30
g6
sg31
I87410
sg32
I0
sg33
I0
sg34
I0
sg35
I1030329
ssS'WALLS JR ROBERT H'
p93
(dp94
g3
I671
sg4
F0.02533532041728763
sg5
g6
sg7
I50936
sg8
F17.0
sg9
I00
sg10
g6
sg11
S'rob.walls@enron.com'
p95
sg13
I17
sg14
g6
sg15
I215
sg16
g6
sg17
I146
sg18
I2
sg19
F0.0
sg20
g6
sg21
F0.02533532041728763
sg22
I0
sg23
I850000
sg24
I5898997
sg25
I00
sg26
I0
sg27
I540751
sg28
I1552453
sg29
I01
sg30
I357091
sg31
I1798780
sg32
F17.0
sg33
F0.0
sg34
F0.0
sg35
I4346544
ssS'KITCHEN LOUISE'
p96
(dp97
g3
I8305
sg4
F0.030222757375075255
sg5
g6
sg7
I5774
sg8
F251.0
sg9
I00
sg10
g6
sg11
S'louise.kitchen@enron.com'
p98
sg13
I251
sg14
g6
sg15
I3669
sg16
g6
sg17
I1728
sg18
I93925
sg19
F-2.186861790300673
sg20
g6
sg21
F0.14249127589359378
sg22
I2
sg23
I3100000
sg24
I547143
sg25
I01
sg26
I194
sg27
g6
sg28
I466101
sg29
I01
sg30
I271442
sg31
I3471141
sg32
F445.0
sg33
F0.11226851851851852
sg34
F194.0
sg35
I81042
ssS'CHAN RONNIE'
p99
(dp100
g3
g6
sg4
I0
sg5
g6
sg7
g6
sg8
I0
sg9
I00
sg10
I-98784
sg11
g6
sg13
g6
sg14
I-32460
sg15
g6
sg16
g6
sg17
g6
sg18
g6
sg19
I0
sg20
I98784
sg21
I0
sg22
I0
sg23
g6
sg24
g6
sg25
I00
sg26
g6
sg27
g6
sg28
I32460
sg29
I00
sg30
g6
sg31
g6
sg32
I0
sg33
I0
sg34
I0
sg35
g6
ssS'BELFER ROBERT'
p101
(dp102
g3
g6
sg4
I0
sg5
I-102500
sg7
g6
sg8
I0
sg9
I00
sg10
g6
sg11
g6
sg13
g6
sg14
I44093
sg15
g6
sg16
g6
sg17
g6
sg18
g6
sg19
I0
sg20
I3285
sg21
I0
sg22
I0
sg23
g6
sg24
I-44093
sg25
I00
sg26
g6
sg27
g6
sg28
g6
sg29
I00
sg30
g6
sg31
I102500
sg32
I0
sg33
I0
sg34
I0
sg35
I3285
ssS'SHANKMAN JEFFREY A'
p103
(dp104
g3
I3221
sg4
F0.029183483390251473
sg5
g6
sg7
I178979
sg8
F94.0
sg9
I00
sg10
g6
sg11
S'jeffrey.shankman@enron.com'
p105
sg13
I94
sg14
g6
sg15
I1730
sg16
g6
sg17
I2681
sg18
I1191
sg19
F-3.4751045304393613
sg20
g6
sg21
F0.06014208092848347
sg22
I2
sg23
I2000000
sg24
I2072035
sg25
I01
sg26
I83
sg27
I554422
sg28
I630137
sg29
I01
sg30
I304110
sg31
I3038702
sg32
F177.0
sg33
F0.030958597538232
sg34
F83.0
sg35
I1441898
ssS'WODRASKA JOHN'
p106
(dp107
g3
g6
sg4
I0
sg5
g6
sg7
g6
sg8
I0
sg9
I00
sg10
g6
sg11
S'john.wodraska@enron.com'
p108
sg13
g6
sg14
g6
sg15
g6
sg16
g6
sg17
g6
sg18
I189583
sg19
I0
sg20
g6
sg21
I0
sg22
I0
sg23
g6
sg24
g6
sg25
I00
sg26
g6
sg27
g6
sg28
g6
sg29
I00
sg30
g6
sg31
I189583
sg32
I0
sg33
I0
sg34
I0
sg35
g6
ssS'BERGSIEKER RICHARD P'
p109
(dp110
g3
I383
sg4
F0.010443864229765013
sg5
g6
sg7
I59175
sg8
F4.0
sg9
I00
sg10
I-485813
sg11
S'rick.bergsieker@enron.com'
p111
sg13
I4
sg14
g6
sg15
I233
sg16
g6
sg17
I59
sg18
I427316
sg19
F0.0
sg20
g6
sg21
F0.010443864229765013
sg22
I0
sg23
I250000
sg24
I659249
sg25
I00
sg26
I0
sg27
I180250
sg28
I659249
sg29
I01
sg30
I187922
sg31
I618850
sg32
F4.0
sg33
F0.0
sg34
F0.0
sg35
g6
ssS'URQUHART JOHN A'
p112
(dp113
g3
g6
sg4
I0
sg5
g6
sg7
I228656
sg8
I0
sg9
I00
sg10
I-36666
sg11
g6
sg13
g6
sg14
g6
sg15
g6
sg16
g6
sg17
g6
sg18
g6
sg19
I0
sg20
I36666
sg21
I0
sg22
I0
sg23
g6
sg24
g6
sg25
I00
sg26
g6
sg27
g6
sg28
g6
sg29
I00
sg30
g6
sg31
I228656
sg32
I0
sg33
I0
sg34
I0
sg35
g6
ssS'BIBI PHILIPPE A'
p114
(dp115
g3
I1607
sg4
F0.01431238332296204
sg5
g6
sg7
I38559
sg8
F23.0
sg9
I00
sg10
g6
sg11
S'philippe.bibi@enron.com'
p116
sg13
I23
sg14
g6
sg15
I1336
sg16
g6
sg17
I40
sg18
I425688
sg19
F-1.6094379124341003
sg20
g6
sg21
F0.21431238332296204
sg22
I0
sg23
I1000000
sg24
I1843816
sg25
I00
sg26
I8
sg27
I369721
sg28
I378082
sg29
I01
sg30
I213625
sg31
I2047593
sg32
F31.0
sg33
F0.2
sg34
F8.0
sg35
I1465734
ssS'RIEKER PAULA H'
p117
(dp118
g3
I1328
sg4
F0.02635542168674699
sg5
I214678
sg7
I33271
sg8
F48.0
sg9
I01
sg10
I-100000
sg11
S'paula.rieker@enron.com'
p119
sg13
I35
sg14
g6
sg15
I1258
sg16
g6
sg17
I82
sg18
I1950
sg19
F-0.5355182363563622
sg20
g6
sg21
F0.6117212753452835
sg22
I2
sg23
I700000
sg24
I1918887
sg25
I00
sg26
I48
sg27
g6
sg28
I283649
sg29
I01
sg30
I249201
sg31
I1099100
sg32
F83.0
sg33
F0.5853658536585366
sg34
F35.0
sg35
I1635238
ssS'WHALEY DAVID A'
p120
(dp121
g3
g6
sg4
I0
sg5
g6
sg7
g6
sg8
I0
sg9
I00
sg10
g6
sg11
g6
sg13
g6
sg14
g6
sg15
g6
sg16
g6
sg17
g6
sg18
g6
sg19
I0
sg20
g6
sg21
I0
sg22
I0
sg23
g6
sg24
I98718
sg25
I00
sg26
g6
sg27
g6
sg28
g6
sg29
I00
sg30
g6
sg31
g6
sg32
I0
sg33
I0
sg34
I0
sg35
I98718
ssS'BECK SALLY W'
p122
(dp123
g3
I7315
sg4
F0.01968557758031442
sg5
g6
sg7
I37172
sg8
F386.0
sg9
I00
sg10
g6
sg11
S'sally.beck@enron.com'
p124
sg13
I144
sg14
g6
sg15
I2639
sg16
g6
sg17
I4343
sg18
I566
sg19
F-2.420483263069991
sg20
g6
sg21
F0.10856423288770563
sg22
I2
sg23
I700000
sg24
I126027
sg25
I01
sg26
I386
sg27
g6
sg28
I126027
sg29
I01
sg30
I231330
sg31
I969068
sg32
F530.0
sg33
F0.08887865530739121
sg34
F144.0
sg35
g6
ssS'HAUG DAVID L'
p125
(dp126
g3
I573
sg4
F0.006980802792321117
sg5
g6
sg7
I475
sg8
F7.0
sg9
I00
sg10
g6
sg11
S'david.haug@enron.com'
p127
sg13
I4
sg14
g6
sg15
I471
sg16
g6
sg17
I19
sg18
g6
sg19
F-0.9985288301111273
sg20
g6
sg21
F0.37540185542390003
sg22
I0
sg23
g6
sg24
I2217299
sg25
I00
sg26
I7
sg27
g6
sg28
I2217299
sg29
I01
sg30
g6
sg31
I475
sg32
F11.0
sg33
F0.3684210526315789
sg34
F4.0
sg35
g6
ssS'ECHOLS JOHN B'
p128
(dp129
g3
g6
sg4
I0
sg5
g6
sg7
I21530
sg8
I0
sg9
I00
sg10
g6
sg11
S'john.echols@enron.com'
p130
sg13
g6
sg14
g6
sg15
g6
sg16
g6
sg17
g6
sg18
I53775
sg19
I0
sg20
g6
sg21
I0
sg22
I0
sg23
I200000
sg24
I1008941
sg25
I00
sg26
g6
sg27
I2234774
sg28
I407503
sg29
I00
sg30
I182245
sg31
I2692324
sg32
I0
sg33
I0
sg34
I0
sg35
I601438
ssS'MENDELSOHN JOHN'
p131
(dp132
g3
g6
sg4
I0
sg5
g6
sg7
I148
sg8
I0
sg9
I00
sg10
I-103750
sg11
g6
sg13
g6
sg14
g6
sg15
g6
sg16
g6
sg17
g6
sg18
g6
sg19
I0
sg20
I103750
sg21
I0
sg22
I0
sg23
g6
sg24
g6
sg25
I00
sg26
g6
sg27
g6
sg28
g6
sg29
I00
sg30
g6
sg31
I148
sg32
I0
sg33
I0
sg34
I0
sg35
g6
ssS'HICKERSON GARY J'
p133
(dp134
g3
I1320
sg4
F0.030303030303030304
sg5
g6
sg7
I98849
sg8
F40.0
sg9
I00
sg10
g6
sg11
S'gary.hickerson@enron.com'
p135
sg13
I40
sg14
g6
sg15
I900
sg16
g6
sg17
I27
sg18
I1936
sg19
F-3.295836866004329
sg20
g6
sg21
F0.06734006734006734
sg22
I0
sg23
I1700000
sg24
I441096
sg25
I00
sg26
I1
sg27
I69223
sg28
I441096
sg29
I01
sg30
I211788
sg31
I2081796
sg32
F41.0
sg33
F0.037037037037037035
sg34
F1.0
sg35
g6
ssS'CLINE KENNETH W'
p136
(dp137
g3
g6
sg4
I0
sg5
g6
sg7
g6
sg8
I0
sg9
I00
sg10
g6
sg11
g6
sg13
g6
sg14
I-472568
sg15
g6
sg16
g6
sg17
g6
sg18
g6
sg19
I0
sg20
g6
sg21
I0
sg22
I0
sg23
g6
sg24
I189518
sg25
I00
sg26
g6
sg27
g6
sg28
I662086
sg29
I00
sg30
g6
sg31
g6
sg32
I0
sg33
I0
sg34
I0
sg35
g6
ssS'LEWIS RICHARD'
p138
(dp139
g3
I952
sg4
F0.01050420168067227
sg5
g6
sg7
g6
sg8
F10.0
sg9
I00
sg10
g6
sg11
S'richard.lewis@enron.com'
p140
sg13
I10
sg14
g6
sg15
I739
sg16
g6
sg17
I26
sg18
g6
sg19
F0.0
sg20
g6
sg21
F0.01050420168067227
sg22
I0
sg23
g6
sg24
I850477
sg25
I00
sg26
I0
sg27
g6
sg28
g6
sg29
I01
sg30
g6
sg31
g6
sg32
F10.0
sg33
F0.0
sg34
F0.0
sg35
I850477
ssS'HAYES ROBERT E'
p141
(dp142
g3
I504
sg4
F0.031746031746031744
sg5
I7961
sg7
g6
sg8
F16.0
sg9
I00
sg10
g6
sg11
S'robert.hayes@enron.com'
p143
sg13
I16
sg14
g6
sg15
I50
sg16
g6
sg17
I12
sg18
g6
sg19
F0.0
sg20
g6
sg21
F0.031746031746031744
sg22
I0
sg23
g6
sg24
I151418
sg25
I00
sg26
I0
sg27
g6
sg28
I151418
sg29
I01
sg30
g6
sg31
I7961
sg32
F16.0
sg33
F0.0
sg34
F0.0
sg35
g6
ssS'MCCARTY DANNY J'
p144
(dp145
g3
I1433
sg4
F0.017445917655268667
sg5
g6
sg7
g6
sg8
F25.0
sg9
I00
sg10
g6
sg11
S'danny.mccarty@enron.com'
p146
sg13
I25
sg14
g6
sg15
I508
sg16
g6
sg17
I215
sg18
g6
sg19
F-4.677490847567718
sg20
g6
sg21
F0.026748243236664016
sg22
I0
sg23
g6
sg24
I758931
sg25
I00
sg26
I2
sg27
g6
sg28
I94556
sg29
I01
sg30
g6
sg31
g6
sg32
F27.0
sg33
F0.009302325581395349
sg34
F2.0
sg35
I664375
ssS'KOPPER MICHAEL J'
p147
(dp148
g3
g6
sg4
I0
sg5
g6
sg7
I118134
sg8
I0
sg9
I01
sg10
g6
sg11
S'michael.kopper@enron.com'
p149
sg13
g6
sg14
g6
sg15
g6
sg16
g6
sg17
g6
sg18
I907502
sg19
I0
sg20
g6
sg21
I0
sg22
I0
sg23
I800000
sg24
I985032
sg25
I00
sg26
g6
sg27
I602671
sg28
I985032
sg29
I00
sg30
I224305
sg31
I2652612
sg32
I0
sg33
I0
sg34
I0
sg35
g6
ssS'LEFF DANIEL P'
p150
(dp151
g3
I2822
sg4
F0.02374202693125443
sg5
g6
sg7
g6
sg8
F67.0
sg9
I00
sg10
g6
sg11
S'dan.leff@enron.com'
p152
sg13
I67
sg14
g6
sg15
I2672
sg16
g6
sg17
I63
sg18
I3083
sg19
F-1.5040773967762742
sg20
g6
sg21
F0.24596424915347664
sg22
I0
sg23
I1000000
sg24
I360528
sg25
I00
sg26
I14
sg27
I1387399
sg28
I360528
sg29
I01
sg30
I273746
sg31
I2664228
sg32
F81.0
sg33
F0.2222222222222222
sg34
F14.0
sg35
g6
ssS'LAVORATO JOHN J'
p153
(dp154
g3
I7259
sg4
F0.07273729163796666
sg5
g6
sg7
I49537
sg8
F528.0
sg9
I00
sg10
g6
sg11
S'john.lavorato@enron.com'
p155
sg13
I528
sg14
g6
sg15
I3962
sg16
g6
sg17
I2585
sg18
I1552
sg19
F-1.838887572446295
sg20
g6
sg21
F0.23173148893003628
sg22
I2
sg23
I8000000
sg24
I5167144
sg25
I01
sg26
I411
sg27
I2035380
sg28
I1008149
sg29
I01
sg30
I339288
sg31
I10425757
sg32
F939.0
sg33
F0.15899419729206962
sg34
F411.0
sg35
I4158995
ssS'BERBERIAN DAVID'
p156
(dp157
g3
g6
sg4
I0
sg5
g6
sg7
I11892
sg8
I0
sg9
I00
sg10
g6
sg11
S'david.berberian@enron.com'
p158
sg13
g6
sg14
g6
sg15
g6
sg16
g6
sg17
g6
sg18
g6
sg19
I0
sg20
g6
sg21
I0
sg22
I0
sg23
g6
sg24
I2493616
sg25
I00
sg26
g6
sg27
g6
sg28
I869220
sg29
I00
sg30
I216582
sg31
I228474
sg32
I0
sg33
I0
sg34
I0
sg35
I1624396
ssS'DETMERING TIMOTHY J'
p159
(dp160
g3
g6
sg4
I0
sg5
I875307
sg7
I52255
sg8
I0
sg9
I00
sg10
I-775241
sg11
S'timothy.detmering@enron.com'
p161
sg13
g6
sg14
I-315068
sg15
g6
sg16
g6
sg17
g6
sg18
I1105
sg19
I0
sg20
g6
sg21
I0
sg22
I0
sg23
I425000
sg24
I2027865
sg25
I00
sg26
g6
sg27
I415657
sg28
I315068
sg29
I00
sg30
I210500
sg31
I1204583
sg32
I0
sg33
I0
sg34
I0
sg35
I2027865
ssS'WAKEHAM JOHN'
p162
(dp163
g3
g6
sg4
I0
sg5
g6
sg7
I103773
sg8
I0
sg9
I00
sg10
g6
sg11
g6
sg13
g6
sg14
g6
sg15
g6
sg16
g6
sg17
g6
sg18
g6
sg19
I0
sg20
I109298
sg21
I0
sg22
I0
sg23
g6
sg24
g6
sg25
I00
sg26
g6
sg27
g6
sg28
g6
sg29
I00
sg30
g6
sg31
I213071
sg32
I0
sg33
I0
sg34
I0
sg35
g6
ssS'POWERS WILLIAM'
p164
(dp165
g3
I653
sg4
F0.0
sg5
g6
sg7
g6
sg8
F0.0
sg9
I00
sg10
I-17500
sg11
S'ken.powers@enron.com'
p166
sg13
I0
sg14
g6
sg15
I12
sg16
g6
sg17
I26
sg18
g6
sg19
F0.0
sg20
I17500
sg21
F0.0
sg22
I0
sg23
g6
sg24
g6
sg25
I00
sg26
I0
sg27
g6
sg28
g6
sg29
I01
sg30
g6
sg31
g6
sg32
F0.0
sg33
F0.0
sg34
F0.0
sg35
g6
ssS'GOLD JOSEPH'
p167
(dp168
g3
g6
sg4
I0
sg5
g6
sg7
g6
sg8
I0
sg9
I00
sg10
g6
sg11
S'joe.gold@enron.com'
p169
sg13
g6
sg14
g6
sg15
g6
sg16
g6
sg17
g6
sg18
I819288
sg19
I0
sg20
g6
sg21
I0
sg22
I0
sg23
I750000
sg24
I877611
sg25
I00
sg26
g6
sg27
I304805
sg28
I441096
sg29
I00
sg30
I272880
sg31
I2146973
sg32
I0
sg33
I0
sg34
I0
sg35
I436515
ssS'BANNANTINE JAMES M'
p170
(dp171
g3
I566
sg4
F0.06890459363957598
sg5
g6
sg7
I56301
sg8
F39.0
sg9
I00
sg10
I-5104
sg11
S'james.bannantine@enron.com'
p172
sg13
I39
sg14
I-560222
sg15
I465
sg16
g6
sg17
I29
sg18
I864523
sg19
F0.0
sg20
g6
sg21
F0.06890459363957598
sg22
I0
sg23
g6
sg24
I5243487
sg25
I00
sg26
I0
sg27
g6
sg28
I1757552
sg29
I01
sg30
I477
sg31
I916197
sg32
F39.0
sg33
F0.0
sg34
F0.0
sg35
I4046157
ssS'DUNCAN JOHN H'
p173
(dp174
g3
g6
sg4
I0
sg5
g6
sg7
g6
sg8
I0
sg9
I00
sg10
I-25000
sg11
g6
sg13
g6
sg14
g6
sg15
g6
sg16
g6
sg17
g6
sg18
g6
sg19
I0
sg20
I102492
sg21
I0
sg22
I0
sg23
g6
sg24
I371750
sg25
I00
sg26
g6
sg27
g6
sg28
g6
sg29
I00
sg30
g6
sg31
I77492
sg32
I0
sg33
I0
sg34
I0
sg35
I371750
ssS'SHAPIRO RICHARD S'
p175
(dp176
g3
I15149
sg4
F0.0048848108786058485
sg5
g6
sg7
I137767
sg8
F74.0
sg9
I00
sg10
g6
sg11
S'richard.shapiro@enron.com'
p177
sg13
I74
sg14
g6
sg15
I4527
sg16
g6
sg17
I1215
sg18
I705
sg19
F-2.928112085879012
sg20
g6
sg21
F0.058382753265437126
sg22
I2
sg23
I650000
sg24
I987001
sg25
I01
sg26
I65
sg27
g6
sg28
I379164
sg29
I01
sg30
I269076
sg31
I1057548
sg32
F139.0
sg33
F0.053497942386831275
sg34
F65.0
sg35
I607837
ssS'SHERRIFF JOHN R'
p178
(dp179
g3
I3187
sg4
F0.008785691873235017
sg5
g6
sg7
g6
sg8
F28.0
sg9
I00
sg10
g6
sg11
S'john.sherriff@enron.com'
p180
sg13
I28
sg14
g6
sg15
I2103
sg16
g6
sg17
I92
sg18
I1852186
sg19
F-1.3862943611198906
sg20
g6
sg21
F0.258785691873235
sg22
I0
sg23
I1500000
sg24
I3128982
sg25
I00
sg26
I23
sg27
I554422
sg28
I1293424
sg29
I01
sg30
I428780
sg31
I4335388
sg32
F51.0
sg33
F0.25
sg34
F23.0
sg35
I1835558
ssS'SHELBY REX'
p181
(dp182
g3
I225
sg4
F0.057777777777777775
sg5
g6
sg7
I22884
sg8
F14.0
sg9
I01
sg10
I-4167
sg11
S'rex.shelby@enron.com'
p183
sg13
I13
sg14
g6
sg15
I91
sg16
g6
sg17
I39
sg18
I1573324
sg19
F-1.024504316514388
sg20
g6
sg21
F0.41675213675213674
sg22
I0
sg23
I200000
sg24
I2493616
sg25
I00
sg26
I14
sg27
g6
sg28
I869220
sg29
I01
sg30
I211844
sg31
I2003885
sg32
F27.0
sg33
F0.358974358974359
sg34
F13.0
sg35
I1624396
ssS'LEMAISTRE CHARLES'
p184
(dp185
g3
g6
sg4
I0
sg5
g6
sg7
g6
sg8
I0
sg9
I00
sg10
I-25000
sg11
g6
sg13
g6
sg14
g6
sg15
g6
sg16
g6
sg17
g6
sg18
g6
sg19
I0
sg20
I112492
sg21
I0
sg22
I0
sg23
g6
sg24
I412878
sg25
I00
sg26
g6
sg27
g6
sg28
g6
sg29
I00
sg30
g6
sg31
I87492
sg32
I0
sg33
I0
sg34
I0
sg35
I412878
ssS'DEFFNER JOSEPH M'
p186
(dp187
g3
I714
sg4
F0.16106442577030813
sg5
g6
sg7
I41626
sg8
F115.0
sg9
I00
sg10
g6
sg11
S'joseph.deffner@enron.com'
p188
sg13
I115
sg14
g6
sg15
I552
sg16
g6
sg17
I74
sg18
I25553
sg19
F-2.917770732084279
sg20
g6
sg21
F0.2151184798243622
sg22
I0
sg23
I600000
sg24
I159211
sg25
I00
sg26
I4
sg27
I335349
sg28
I141833
sg29
I01
sg30
I206121
sg31
I1208649
sg32
F119.0
sg33
F0.05405405405405406
sg34
F4.0
sg35
I17378
ssS'KISHKILL JOSEPH G'
p189
(dp190
g3
g6
sg4
I0
sg5
g6
sg7
I116335
sg8
I0
sg9
I00
sg10
I-51042
sg11
S'joe.kishkill@enron.com'
p191
sg13
g6
sg14
g6
sg15
g6
sg16
g6
sg17
g6
sg18
I465357
sg19
I0
sg20
g6
sg21
I0
sg22
I0
sg23
g6
sg24
I1034346
sg25
I00
sg26
g6
sg27
g6
sg28
I1034346
sg29
I00
sg30
I174246
sg31
I704896
sg32
I0
sg33
I0
sg34
I0
sg35
g6
ssS'WHALLEY LAWRENCE G'
p192
(dp193
g3
I6019
sg4
F0.03090214321315833
sg5
g6
sg7
I57838
sg8
F186.0
sg9
I00
sg10
g6
sg11
S'greg.whalley@enron.com'
p194
sg13
I186
sg14
g6
sg15
I3920
sg16
g6
sg17
I556
sg18
I301026
sg19
F-3.1427144639026365
sg20
g6
sg21
F0.07406761083905761
sg22
I0
sg23
I3000000
sg24
I6079137
sg25
I00
sg26
I24
sg27
I808346
sg28
I2796177
sg29
I01
sg30
I510364
sg31
I4677574
sg32
F210.0
sg33
F0.04316546762589928
sg34
F24.0
sg35
I3282960
ssS'MCCONNELL MICHAEL S'
p195
(dp196
g3
I3329
sg4
F0.02763592670471613
sg5
g6
sg7
I81364
sg8
F194.0
sg9
I00
sg10
g6
sg11
S'mike.mcconnell@enron.com'
p197
sg13
I92
sg14
g6
sg15
I2189
sg16
g6
sg17
I2742
sg18
I540
sg19
F-2.6485847010589314
sg20
g6
sg21
F0.09838720314527047
sg22
I2
sg23
I1100000
sg24
I3101279
sg25
I01
sg26
I194
sg27
I554422
sg28
I1478269
sg29
I01
sg30
I365038
sg31
I2101364
sg32
F286.0
sg33
F0.07075127644055434
sg34
F92.0
sg35
I1623010
ssS'PIRO JIM'
p198
(dp199
g3
I58
sg4
F0.0
sg5
g6
sg7
g6
sg8
F1.0
sg9
I00
sg10
g6
sg11
S'jim.piro@enron.com'
p200
sg13
I0
sg14
g6
sg15
I3
sg16
g6
sg17
I16
sg18
g6
sg19
F-2.772588722239781
sg20
g6
sg21
F0.0625
sg22
I0
sg23
g6
sg24
I47304
sg25
I00
sg26
I1
sg27
g6
sg28
I47304
sg29
I01
sg30
g6
sg31
g6
sg32
F1.0
sg33
F0.0625
sg34
F0.0
sg35
g6
ssS'DELAINEY DAVID W'
p201
(dp202
g3
I3093
sg4
F0.02133850630455868
sg5
g6
sg7
I86174
sg8
F609.0
sg9
I01
sg10
g6
sg11
S'david.delainey@enron.com'
p203
sg13
I66
sg14
g6
sg15
I2097
sg16
g6
sg17
I3069
sg18
I1661
sg19
F-1.6172887869098391
sg20
g6
sg21
F0.2197744789340797
sg22
I2
sg23
I3000000
sg24
I3614261
sg25
I01
sg26
I609
sg27
I1294981
sg28
I1323148
sg29
I01
sg30
I365163
sg31
I4747979
sg32
F675.0
sg33
F0.198435972629521
sg34
F66.0
sg35
I2291113
ssS'SULLIVAN-SHAKLOVITZ COLLEEN'
p204
(dp205
g3
g6
sg4
I0
sg5
I181993
sg7
g6
sg8
I0
sg9
I00
sg10
g6
sg11
g6
sg13
g6
sg14
g6
sg15
g6
sg16
g6
sg17
g6
sg18
I162
sg19
I0
sg20
g6
sg21
I0
sg22
I0
sg23
I100000
sg24
I1362375
sg25
I00
sg26
g6
sg27
I554422
sg28
g6
sg29
I00
sg30
I162779
sg31
I999356
sg32
I0
sg33
I0
sg34
I0
sg35
I1362375
ssS'WROBEL BRUCE'
p206
(dp207
g3
g6
sg4
I0
sg5
g6
sg7
g6
sg8
I0
sg9
I00
sg10
g6
sg11
g6
sg13
g6
sg14
g6
sg15
g6
sg16
g6
sg17
g6
sg18
g6
sg19
I0
sg20
g6
sg21
I0
sg22
I0
sg23
g6
sg24
I139130
sg25
I00
sg26
g6
sg27
g6
sg28
g6
sg29
I00
sg30
g6
sg31
g6
sg32
I0
sg33
I0
sg34
I0
sg35
I139130
ssS'LINDHOLM TOD A'
p208
(dp209
g3
g6
sg4
I0
sg5
I204075
sg7
I57727
sg8
I0
sg9
I00
sg10
g6
sg11
S'tod.lindholm@enron.com'
p210
sg13
g6
sg14
g6
sg15
g6
sg16
g6
sg17
g6
sg18
I2630
sg19
I0
sg20
g6
sg21
I0
sg22
I0
sg23
I200000
sg24
I3064208
sg25
I00
sg26
g6
sg27
I175000
sg28
I514847
sg29
I00
sg30
I236457
sg31
I875889
sg32
I0
sg33
I0
sg34
I0
sg35
I2549361
ssS'MEYER JEROME J'
p211
(dp212
g3
g6
sg4
I0
sg5
g6
sg7
I2151
sg8
I0
sg9
I00
sg10
I-38346
sg11
g6
sg13
g6
sg14
g6
sg15
g6
sg16
g6
sg17
g6
sg18
g6
sg19
I0
sg20
I38346
sg21
I0
sg22
I0
sg23
g6
sg24
g6
sg25
I00
sg26
g6
sg27
g6
sg28
g6
sg29
I00
sg30
g6
sg31
I2151
sg32
I0
sg33
I0
sg34
I0
sg35
g6
ssS'LAY KENNETH L'
p213
(dp214
g3
I4273
sg4
F0.028785396676807865
sg5
I202911
sg7
I99832
sg8
F123.0
sg9
I01
sg10
I-300000
sg11
S'kenneth.lay@enron.com'
p215
sg13
I123
sg14
g6
sg15
I2411
sg16
I81525000
sg17
I36
sg18
I10359729
sg19
F-0.8109302162163288
sg20
g6
sg21
F0.47322984112125227
sg22
I0
sg23
I7000000
sg24
I49110078
sg25
I00
sg26
I16
sg27
I3600000
sg28
I14761694
sg29
I01
sg30
I1072321
sg31
I103559793
sg32
F139.0
sg33
F0.4444444444444444
sg34
F16.0
sg35
I34348384
ssS'BUTTS ROBERT H'
p216
(dp217
g3
g6
sg4
I0
sg5
g6
sg7
I9410
sg8
I0
sg9
I00
sg10
I-75000
sg11
S'bob.butts@enron.com'
p218
sg13
g6
sg14
g6
sg15
g6
sg16
g6
sg17
g6
sg18
I150656
sg19
I0
sg20
g6
sg21
I0
sg22
I0
sg23
I750000
sg24
I417619
sg25
I00
sg26
g6
sg27
I175000
sg28
I417619
sg29
I00
sg30
I261516
sg31
I1271582
sg32
I0
sg33
I0
sg34
I0
sg35
g6
ssS'OLSON CINDY K'
p219
(dp220
g3
I1184
sg4
F0.016891891891891893
sg5
I77716
sg7
I63791
sg8
F20.0
sg9
I00
sg10
g6
sg11
S'cindy.olson@enron.com'
p221
sg13
I20
sg14
g6
sg15
I856
sg16
g6
sg17
I52
sg18
I972
sg19
F-1.2431935174792175
sg20
g6
sg21
F0.3053534303534303
sg22
I0
sg23
I750000
sg24
I2606763
sg25
I00
sg26
I15
sg27
I100000
sg28
I969729
sg29
I01
sg30
I329078
sg31
I1321557
sg32
F35.0
sg33
F0.28846153846153844
sg34
F15.0
sg35
I1637034
ssS'MCDONALD REBECCA'
p222
(dp223
g3
I894
sg4
F0.06040268456375839
sg5
g6
sg7
g6
sg8
F54.0
sg9
I00
sg10
g6
sg11
S'rebecca.mcdonald@enron.com'
p224
sg13
I54
sg14
g6
sg15
I720
sg16
g6
sg17
I13
sg18
g6
sg19
F-2.5649493574615367
sg20
g6
sg21
F0.1373257614868353
sg22
I0
sg23
g6
sg24
I1691366
sg25
I00
sg26
I1
sg27
g6
sg28
I934065
sg29
I01
sg30
g6
sg31
g6
sg32
F55.0
sg33
F0.07692307692307693
sg34
F1.0
sg35
I757301
ssS'CUMBERLAND MICHAEL S'
p225
(dp226
g3
g6
sg4
I0
sg5
g6
sg7
I22344
sg8
I0
sg9
I00
sg10
g6
sg11
g6
sg13
g6
sg14
g6
sg15
g6
sg16
g6
sg17
g6
sg18
I713
sg19
I0
sg20
g6
sg21
I0
sg22
I0
sg23
I325000
sg24
I207940
sg25
I00
sg26
g6
sg27
I275000
sg28
I207940
sg29
I00
sg30
I184899
sg31
I807956
sg32
I0
sg33
I0
sg34
I0
sg35
g6
ssS'GAHN ROBERT S'
p227
(dp228
g3
g6
sg4
I0
sg5
I73122
sg7
I50080
sg8
I0
sg9
I00
sg10
I-1042
sg11
g6
sg13
g6
sg14
g6
sg15
g6
sg16
g6
sg17
g6
sg18
I76547
sg19
I0
sg20
g6
sg21
I0
sg22
I0
sg23
I509870
sg24
I318607
sg25
I00
sg26
g6
sg27
g6
sg28
I235370
sg29
I00
sg30
I192008
sg31
I900585
sg32
I0
sg33
I0
sg34
I0
sg35
I83237
ssS'MCCLELLAN GEORGE'
p229
(dp230
g3
I1744
sg4
F0.02981651376146789
sg5
g6
sg7
I228763
sg8
F52.0
sg9
I00
sg10
I-125000
sg11
S'george.mcclellan@enron.com'
p231
sg13
I52
sg14
g6
sg15
I1469
sg16
g6
sg17
I49
sg18
I51587
sg19
F0.0
sg20
g6
sg21
F0.02981651376146789
sg22
I0
sg23
I900000
sg24
I947861
sg25
I00
sg26
I0
sg27
g6
sg28
I441096
sg29
I01
sg30
I263413
sg31
I1318763
sg32
F52.0
sg33
F0.0
sg34
F0.0
sg35
I506765
ssS'HERMANN ROBERT J'
p232
(dp233
g3
g6
sg4
I0
sg5
g6
sg7
I48357
sg8
I0
sg9
I00
sg10
I-280000
sg11
S'robert.hermann@enron.com'
p234
sg13
g6
sg14
g6
sg15
g6
sg16
g6
sg17
g6
sg18
I416441
sg19
I0
sg20
g6
sg21
I0
sg22
I0
sg23
I700000
sg24
I668132
sg25
I00
sg26
g6
sg27
I150000
sg28
I480632
sg29
I00
sg30
I262663
sg31
I1297461
sg32
I0
sg33
I0
sg34
I0
sg35
I187500
ssS'SCRIMSHAW MATTHEW'
p235
(dp236
g3
g6
sg4
I0
sg5
g6
sg7
g6
sg8
I0
sg9
I00
sg10
g6
sg11
S'matthew.scrimshaw@enron.com'
p237
sg13
g6
sg14
g6
sg15
g6
sg16
g6
sg17
g6
sg18
g6
sg19
I0
sg20
g6
sg21
I0
sg22
I0
sg23
g6
sg24
I759557
sg25
I00
sg26
g6
sg27
g6
sg28
g6
sg29
I00
sg30
g6
sg31
g6
sg32
I0
sg33
I0
sg34
I0
sg35
I759557
ssS'GATHMANN WILLIAM D'
p238
(dp239
g3
g6
sg4
I0
sg5
g6
sg7
g6
sg8
I0
sg9
I00
sg10
g6
sg11
g6
sg13
g6
sg14
I-72419
sg15
g6
sg16
g6
sg17
g6
sg18
g6
sg19
I0
sg20
g6
sg21
I0
sg22
I0
sg23
g6
sg24
I1945360
sg25
I00
sg26
g6
sg27
g6
sg28
I264013
sg29
I00
sg30
g6
sg31
g6
sg32
I0
sg33
I0
sg34
I0
sg35
I1753766
ssS'HAEDICKE MARK E'
p240
(dp241
g3
I4009
sg4
F0.04489897730107259
sg5
I2157527
sg7
I76169
sg8
F180.0
sg9
I00
sg10
I-934484
sg11
S'mark.haedicke@enron.com'
p242
sg13
I180
sg14
I-329825
sg15
I1847
sg16
g6
sg17
I1941
sg18
I52382
sg19
F-3.460084718995699
sg20
g6
sg21
F0.0763260767343544
sg22
I2
sg23
I1150000
sg24
I803094
sg25
I01
sg26
I61
sg27
I983346
sg28
I524169
sg29
I01
sg30
I374125
sg31
I3859065
sg32
F241.0
sg33
F0.03142709943328181
sg34
F61.0
sg35
I608750
ssS'BOWEN JR RAYMOND M'
p243
(dp244
g3
I1858
sg4
F0.07534983853606028
sg5
g6
sg7
I65907
sg8
F140.0
sg9
I01
sg10
I-833
sg11
S'raymond.bowen@enron.com'
p245
sg13
I140
sg14
g6
sg15
I1593
sg16
g6
sg17
I27
sg18
I1621
sg19
F-0.587786664902119
sg20
g6
sg21
F0.6309053940916158
sg22
I0
sg23
I1350000
sg24
I252055
sg25
I00
sg26
I15
sg27
I974293
sg28
I252055
sg29
I01
sg30
I278601
sg31
I2669589
sg32
F155.0
sg33
F0.5555555555555556
sg34
F15.0
sg35
g6
ssS'GILLIS JOHN'
p246
(dp247
g3
g6
sg4
I0
sg5
g6
sg7
g6
sg8
I0
sg9
I00
sg10
g6
sg11
g6
sg13
g6
sg14
g6
sg15
g6
sg16
g6
sg17
g6
sg18
g6
sg19
I0
sg20
g6
sg21
I0
sg22
I0
sg23
g6
sg24
I85641
sg25
I00
sg26
g6
sg27
g6
sg28
I75838
sg29
I00
sg30
g6
sg31
g6
sg32
I0
sg33
I0
sg34
I0
sg35
I9803
ssS'FITZGERALD JAY L'
p248
(dp249
g3
I936
sg4
F0.0010683760683760685
sg5
g6
sg7
I23870
sg8
F8.0
sg9
I00
sg10
g6
sg11
S'jay.fitzgerald@enron.com'
p250
sg13
I1
sg14
g6
sg15
I723
sg16
g6
sg17
I16
sg18
I285414
sg19
F-0.6931471805599453
sg20
g6
sg21
F0.5010683760683761
sg22
I0
sg23
I350000
sg24
I1621236
sg25
I00
sg26
I8
sg27
I556416
sg28
I956775
sg29
I01
sg30
I199157
sg31
I1414857
sg32
F9.0
sg33
F0.5
sg34
F1.0
sg35
I664461
ssS'MORAN MICHAEL P'
p251
(dp252
g3
I672
sg4
F0.0
sg5
g6
sg7
g6
sg8
F0.0
sg9
I00
sg10
g6
sg11
S'michael.moran@enron.com'
p253
sg13
I0
sg14
g6
sg15
I127
sg16
g6
sg17
I19
sg18
g6
sg19
F0.0
sg20
g6
sg21
F0.0
sg22
I0
sg23
g6
sg24
I221141
sg25
I00
sg26
I0
sg27
g6
sg28
I161602
sg29
I01
sg30
g6
sg31
g6
sg32
F0.0
sg33
F0.0
sg34
F0.0
sg35
I59539
ssS'REDMOND BRIAN L'
p254
(dp255
g3
I1671
sg4
F0.12208258527827648
sg5
g6
sg7
I14689
sg8
F204.0
sg9
I00
sg10
g6
sg11
S'brian.redmond@enron.com'
p256
sg13
I204
sg14
g6
sg15
I1063
sg16
g6
sg17
I221
sg18
g6
sg19
F-1.5063424034071262
sg20
g6
sg21
F0.34380204229185113
sg22
I2
sg23
g6
sg24
I7890324
sg25
I00
sg26
I49
sg27
g6
sg28
I381285
sg29
I01
sg30
I96840
sg31
I111529
sg32
F253.0
sg33
F0.22171945701357465
sg34
F49.0
sg35
I7509039
ssS'BAZELIDES PHILIP J'
p257
(dp258
g3
g6
sg4
I0
sg5
I684694
sg7
g6
sg8
I0
sg9
I00
sg10
g6
sg11
g6
sg13
g6
sg14
g6
sg15
g6
sg16
g6
sg17
g6
sg18
I874
sg19
I0
sg20
g6
sg21
I0
sg22
I0
sg23
g6
sg24
I1599641
sg25
I00
sg26
g6
sg27
I93750
sg28
g6
sg29
I00
sg30
I80818
sg31
I860136
sg32
I0
sg33
I0
sg34
I0
sg35
I1599641
ssS'BELDEN TIMOTHY N'
p259
(dp260
g3
I7991
sg4
F0.028532098610937303
sg5
I2144013
sg7
I17355
sg8
F228.0
sg9
I01
sg10
I-2334434
sg11
S'tim.belden@enron.com'
p261
sg13
I228
sg14
g6
sg15
I5521
sg16
g6
sg17
I484
sg18
I210698
sg19
F-1.499953679592412
sg20
g6
sg21
F0.2516725944787059
sg22
I2
sg23
I5249999
sg24
I1110705
sg25
I01
sg26
I108
sg27
g6
sg28
I157569
sg29
I01
sg30
I213999
sg31
I5501630
sg32
F336.0
sg33
F0.2231404958677686
sg34
F108.0
sg35
I953136
ssS'DURAN WILLIAM D'
p262
(dp263
g3
I904
sg4
F0.1172566371681416
sg5
g6
sg7
I25785
sg8
F106.0
sg9
I00
sg10
g6
sg11
S'w.duran@enron.com'
p264
sg13
I106
sg14
g6
sg15
I599
sg16
g6
sg17
I12
sg18
I1568
sg19
F-1.3862943611198906
sg20
g6
sg21
F0.3672566371681416
sg22
I0
sg23
I750000
sg24
I1640910
sg25
I00
sg26
I3
sg27
I1105218
sg28
I189041
sg29
I01
sg30
I210692
sg31
I2093263
sg32
F109.0
sg33
F0.25
sg34
F3.0
sg35
I1451869
ssS'THORN TERENCE H'
p265
(dp266
g3
I266
sg4
F0.0
sg5
I16586
sg7
I46145
sg8
F0.0
sg9
I00
sg10
g6
sg11
S'terence.thorn@enron.com'
p267
sg13
I0
sg14
g6
sg15
I73
sg16
g6
sg17
I41
sg18
I426629
sg19
F0.0
sg20
g6
sg21
F0.0
sg22
I0
sg23
g6
sg24
I4817796
sg25
I00
sg26
I0
sg27
I200000
sg28
I365320
sg29
I01
sg30
I222093
sg31
I911453
sg32
F0.0
sg33
F0.0
sg34
F0.0
sg35
I4452476
ssS'FASTOW ANDREW S'
p268
(dp269
g3
g6
sg4
I0
sg5
g6
sg7
I55921
sg8
I0
sg9
I01
sg10
I-1386055
sg11
S'andrew.fastow@enron.com'
p270
sg13
g6
sg14
g6
sg15
g6
sg16
g6
sg17
g6
sg18
I277464
sg19
I0
sg20
g6
sg21
I0
sg22
I0
sg23
I1300000
sg24
I1794412
sg25
I00
sg26
g6
sg27
I1736055
sg28
I1794412
sg29
I00
sg30
I440698
sg31
I2424083
sg32
I0
sg33
I0
sg34
I0
sg35
g6
ssS'FOY JOE'
p271
(dp272
g3
I57
sg4
F0.0
sg5
I181755
sg7
g6
sg8
F0.0
sg9
I00
sg10
g6
sg11
S'tracy.foy@enron.com'
p273
sg13
I0
sg14
g6
sg15
I2
sg16
g6
sg17
I13
sg18
g6
sg19
F0.0
sg20
g6
sg21
F0.0
sg22
I0
sg23
g6
sg24
I343434
sg25
I00
sg26
I0
sg27
g6
sg28
g6
sg29
I01
sg30
g6
sg31
I181755
sg32
F0.0
sg33
F0.0
sg34
F0.0
sg35
I343434
ssS'CALGER CHRISTOPHER F'
p274
(dp275
g3
I2598
sg4
F0.07659738260200154
sg5
g6
sg7
I35818
sg8
F199.0
sg9
I01
sg10
I-262500
sg11
S'christopher.calger@enron.com'
p276
sg13
I199
sg14
g6
sg15
I2188
sg16
g6
sg17
I144
sg18
I486
sg19
F-1.7509374747078
sg20
g6
sg21
F0.25020849371311266
sg22
I0
sg23
I1250000
sg24
I126027
sg25
I00
sg26
I25
sg27
I375304
sg28
I126027
sg29
I01
sg30
I240189
sg31
I1639297
sg32
F224.0
sg33
F0.1736111111111111
sg34
F25.0
sg35
g6
ssS'RICE KENNETH D'
p277
(dp278
g3
I905
sg4
F0.04640883977900553
sg5
g6
sg7
I46950
sg8
F42.0
sg9
I01
sg10
I-3504386
sg11
S'ken.rice@enron.com'
p279
sg13
I42
sg14
g6
sg15
I864
sg16
g6
sg17
I18
sg18
I174839
sg19
F-1.5040773967762742
sg20
g6
sg21
F0.2686310620012277
sg22
I0
sg23
I1750000
sg24
I22542539
sg25
I00
sg26
I4
sg27
I1617011
sg28
I2748364
sg29
I01
sg30
I420636
sg31
I505050
sg32
F46.0
sg33
F0.2222222222222222
sg34
F4.0
sg35
I19794175
ssS'KAMINSKI WINCENTY J'
p280
(dp281
g3
I4607
sg4
F0.008899500759713479
sg5
g6
sg7
I83585
sg8
F171.0
sg9
I00
sg10
g6
sg11
S'vince.kaminski@enron.com'
p282
sg13
I41
sg14
g6
sg15
I583
sg16
g6
sg17
I14368
sg18
I4669
sg19
F-4.431095234039321
sg20
g6
sg21
F0.020800948421183414
sg22
I2
sg23
I400000
sg24
I976037
sg25
I00
sg26
I171
sg27
I323466
sg28
I126027
sg29
I01
sg30
I275101
sg31
I1086821
sg32
F212.0
sg33
F0.011901447661469933
sg34
F41.0
sg35
I850010
ssS'LOCKHART EUGENE E'
p283
(dp284
g3
g6
sg4
I0
sg5
g6
sg7
g6
sg8
I0
sg9
I00
sg10
g6
sg11
g6
sg13
g6
sg14
g6
sg15
g6
sg16
g6
sg17
g6
sg18
g6
sg19
I0
sg20
g6
sg21
I0
sg22
I0
sg23
g6
sg24
g6
sg25
I00
sg26
g6
sg27
g6
sg28
g6
sg29
I00
sg30
g6
sg31
g6
sg32
I0
sg33
I0
sg34
I0
sg35
g6
ssS'COX DAVID'
p285
(dp286
g3
I102
sg4
F0.0
sg5
g6
sg7
I27861
sg8
F4.0
sg9
I00
sg10
I-41250
sg11
S'chip.cox@enron.com'
p287
sg13
I0
sg14
g6
sg15
I71
sg16
g6
sg17
I33
sg18
I494
sg19
F-2.1102132003465894
sg20
g6
sg21
F0.12121212121212122
sg22
I0
sg23
I800000
sg24
I495633
sg25
I00
sg26
I4
sg27
g6
sg28
I378082
sg29
I01
sg30
I314288
sg31
I1101393
sg32
F4.0
sg33
F0.12121212121212122
sg34
F0.0
sg35
I117551
ssS'OVERDYKE JR JERE C'
p288
(dp289
g3
g6
sg4
I0
sg5
g6
sg7
I18834
sg8
I0
sg9
I00
sg10
g6
sg11
S'jere.overdyke@enron.com'
p290
sg13
g6
sg14
g6
sg15
g6
sg16
g6
sg17
g6
sg18
I176
sg19
I0
sg20
g6
sg21
I0
sg22
I0
sg23
g6
sg24
I7307594
sg25
I00
sg26
g6
sg27
I135836
sg28
I2041016
sg29
I00
sg30
I94941
sg31
I249787
sg32
I0
sg33
I0
sg34
I0
sg35
I5266578
ssS'PEREIRA PAULO V. FERRAZ'
p291
(dp292
g3
g6
sg4
I0
sg5
g6
sg7
I27942
sg8
I0
sg9
I00
sg10
I-101250
sg11
g6
sg13
g6
sg14
g6
sg15
g6
sg16
g6
sg17
g6
sg18
g6
sg19
I0
sg20
I101250
sg21
I0
sg22
I0
sg23
g6
sg24
g6
sg25
I00
sg26
g6
sg27
g6
sg28
g6
sg29
I00
sg30
g6
sg31
I27942
sg32
I0
sg33
I0
sg34
I0
sg35
g6
ssS'STABLER FRANK'
p293
(dp294
g3
g6
sg4
I0
sg5
g6
sg7
I16514
sg8
I0
sg9
I00
sg10
g6
sg11
S'frank.stabler@enron.com'
p295
sg13
g6
sg14
g6
sg15
g6
sg16
g6
sg17
g6
sg18
I356071
sg19
I0
sg20
g6
sg21
I0
sg22
I0
sg23
I500000
sg24
I511734
sg25
I00
sg26
g6
sg27
g6
sg28
I511734
sg29
I00
sg30
I239502
sg31
I1112087
sg32
I0
sg33
I0
sg34
I0
sg35
g6
ssS'SKILLING JEFFREY K'
p296
(dp297
g3
I3627
sg4
F0.0242624758753791
sg5
g6
sg7
I29336
sg8
F88.0
sg9
I01
sg10
g6
sg11
S'jeff.skilling@enron.com'
p298
sg13
I88
sg14
g6
sg15
I2042
sg16
g6
sg17
I108
sg18
I22122
sg19
F-1.2809338454620642
sg20
g6
sg21
F0.3020402536531569
sg22
I0
sg23
I5600000
sg24
I26093672
sg25
I00
sg26
I30
sg27
I1920000
sg28
I6843672
sg29
I01
sg30
I1111258
sg31
I8682716
sg32
F118.0
sg33
F0.2777777777777778
sg34
F30.0
sg35
I19250000
ssS'BLAKE JR. NORMAN P'
p299
(dp300
g3
g6
sg4
I0
sg5
g6
sg7
I1279
sg8
I0
sg9
I00
sg10
I-113784
sg11
g6
sg13
g6
sg14
g6
sg15
g6
sg16
g6
sg17
g6
sg18
g6
sg19
I0
sg20
I113784
sg21
I0
sg22
I0
sg23
g6
sg24
g6
sg25
I00
sg26
g6
sg27
g6
sg28
g6
sg29
I00
sg30
g6
sg31
I1279
sg32
I0
sg33
I0
sg34
I0
sg35
g6
ssS'SHERRICK JEFFREY B'
p301
(dp302
g3
I613
sg4
F0.0636215334420881
sg5
g6
sg7
g6
sg8
F39.0
sg9
I00
sg10
g6
sg11
S'jeffrey.sherrick@enron.com'
p303
sg13
I39
sg14
g6
sg15
I583
sg16
g6
sg17
I25
sg18
g6
sg19
F-0.3285040669720361
sg20
g6
sg21
F0.7836215334420881
sg22
I0
sg23
g6
sg24
I1832468
sg25
I00
sg26
I18
sg27
g6
sg28
I405999
sg29
I01
sg30
g6
sg31
g6
sg32
F57.0
sg33
F0.72
sg34
F18.0
sg35
I1426469
ssS'PRENTICE JAMES'
p304
(dp305
g3
g6
sg4
I0
sg5
I564348
sg7
g6
sg8
I0
sg9
I00
sg10
g6
sg11
S'james.prentice@enron.com'
p306
sg13
g6
sg14
g6
sg15
g6
sg16
g6
sg17
g6
sg18
g6
sg19
I0
sg20
g6
sg21
I0
sg22
I0
sg23
g6
sg24
I1095040
sg25
I00
sg26
g6
sg27
g6
sg28
I208809
sg29
I00
sg30
g6
sg31
I564348
sg32
I0
sg33
I0
sg34
I0
sg35
I886231
ssS'GRAY RODNEY'
p307
(dp308
g3
g6
sg4
I0
sg5
I93585
sg7
g6
sg8
I0
sg9
I00
sg10
g6
sg11
g6
sg13
g6
sg14
g6
sg15
g6
sg16
g6
sg17
g6
sg18
I680833
sg19
I0
sg20
g6
sg21
I0
sg22
I0
sg23
g6
sg24
g6
sg25
I00
sg26
g6
sg27
I365625
sg28
g6
sg29
I00
sg30
I6615
sg31
I1146658
sg32
I0
sg33
I0
sg34
I0
sg35
g6
ssS'PICKERING MARK R'
p309
(dp310
g3
I898
sg4
F0.0077951002227171495
sg5
g6
sg7
I31653
sg8
F7.0
sg9
I00
sg10
g6
sg11
S'mark.pickering@enron.com'
p311
sg13
I7
sg14
g6
sg15
I728
sg16
I400000
sg17
I67
sg18
g6
sg19
F0.0
sg20
g6
sg21
F0.0077951002227171495
sg22
I0
sg23
I300000
sg24
I28798
sg25
I00
sg26
I0
sg27
g6
sg28
g6
sg29
I01
sg30
I655037
sg31
I1386690
sg32
F7.0
sg33
F0.0
sg34
F0.0
sg35
I28798
ssS'NOLES JAMES L'
p312
(dp313
g3
g6
sg4
I0
sg5
I774401
sg7
g6
sg8
I0
sg9
I00
sg10
g6
sg11
g6
sg13
g6
sg14
I-94556
sg15
g6
sg16
g6
sg17
g6
sg18
g6
sg19
I0
sg20
g6
sg21
I0
sg22
I0
sg23
g6
sg24
I368705
sg25
I00
sg26
g6
sg27
g6
sg28
I463261
sg29
I00
sg30
g6
sg31
I774401
sg32
I0
sg33
I0
sg34
I0
sg35
g6
ssS'KEAN STEVEN J'
p314
(dp315
g3
I12754
sg4
F0.010976948408342482
sg5
g6
sg7
I41953
sg8
F387.0
sg9
I00
sg10
g6
sg11
S'steven.kean@enron.com'
p316
sg13
I140
sg14
g6
sg15
I3639
sg16
g6
sg17
I6759
sg18
I1231
sg19
F-2.8602055360705725
sg20
g6
sg21
F0.06823393908743702
sg22
I2
sg23
I1000000
sg24
I6153642
sg25
I01
sg26
I387
sg27
I300000
sg28
I4131594
sg29
I01
sg30
I404338
sg31
I1747522
sg32
F527.0
sg33
F0.05725699067909454
sg34
F140.0
sg35
I2022048
ssS'FOWLER PEGGY'
p317
(dp318
g3
I517
sg4
F0.0
sg5
g6
sg7
g6
sg8
F0.0
sg9
I00
sg10
g6
sg11
S'kulvinder.fowler@enron.com'
p319
sg13
I0
sg14
g6
sg15
I10
sg16
g6
sg17
I36
sg18
g6
sg19
F0.0
sg20
g6
sg21
F0.0
sg22
I0
sg23
g6
sg24
I1884748
sg25
I00
sg26
I0
sg27
g6
sg28
I560170
sg29
I01
sg30
g6
sg31
g6
sg32
F0.0
sg33
F0.0
sg34
F0.0
sg35
I1324578
ssS'WASAFF GEORGE'
p320
(dp321
g3
I400
sg4
F0.055
sg5
I831299
sg7
g6
sg8
F22.0
sg9
I00
sg10
I-583325
sg11
S'george.wasaff@enron.com'
p322
sg13
I22
sg14
g6
sg15
I337
sg16
g6
sg17
I30
sg18
I1425
sg19
F-1.455287232606842
sg20
g6
sg21
F0.28833333333333333
sg22
I0
sg23
I325000
sg24
I2056427
sg25
I00
sg26
I7
sg27
I200000
sg28
I388167
sg29
I01
sg30
I259996
sg31
I1034395
sg32
F29.0
sg33
F0.23333333333333334
sg34
F7.0
sg35
I1668260
ssS'WHITE JR THOMAS E'
p323
(dp324
g3
g6
sg4
I0
sg5
g6
sg7
I81353
sg8
I0
sg9
I00
sg10
g6
sg11
S'thomas.white@enron.com'
p325
sg13
g6
sg14
g6
sg15
g6
sg16
g6
sg17
g6
sg18
I1085463
sg19
I0
sg20
g6
sg21
I0
sg22
I0
sg23
I450000
sg24
I15144123
sg25
I00
sg26
g6
sg27
g6
sg28
I13847074
sg29
I00
sg30
I317543
sg31
I1934359
sg32
I0
sg33
I0
sg34
I0
sg35
I1297049
ssS'CHRISTODOULOU DIOMEDES'
p326
(dp327
g3
g6
sg4
I0
sg5
g6
sg7
g6
sg8
I0
sg9
I00
sg10
g6
sg11
S'diomedes.christodoulou@enron.com'
p328
sg13
g6
sg14
g6
sg15
g6
sg16
g6
sg17
g6
sg18
g6
sg19
I0
sg20
g6
sg21
I0
sg22
I0
sg23
g6
sg24
I6077885
sg25
I00
sg26
g6
sg27
g6
sg28
I950730
sg29
I00
sg30
g6
sg31
g6
sg32
I0
sg33
I0
sg34
I0
sg35
I5127155
ssS'ALLEN PHILLIP K'
p329
(dp330
g3
I2902
sg4
F0.016195727084769126
sg5
I2869717
sg7
I13868
sg8
F65.0
sg9
I00
sg10
I-3081055
sg11
S'phillip.allen@enron.com'
p331
sg13
I47
sg14
I-126027
sg15
I1407
sg16
g6
sg17
I2195
sg18
I152
sg19
F-3.5195500556136348
sg20
g6
sg21
F0.04580848334900603
sg22
I2
sg23
I4175000
sg24
I1729541
sg25
I00
sg26
I65
sg27
I304805
sg28
I126027
sg29
I01
sg30
I201955
sg31
I4484442
sg32
F112.0
sg33
F0.029612756264236904
sg34
F47.0
sg35
I1729541
ssS'SHARP VICTORIA T'
p332
(dp333
g3
I3136
sg4
F0.007653061224489796
sg5
I187469
sg7
I116337
sg8
F24.0
sg9
I00
sg10
g6
sg11
S'vicki.sharp@enron.com'
p334
sg13
I24
sg14
g6
sg15
I2477
sg16
g6
sg17
I136
sg18
I2401
sg19
F-3.120895416507997
sg20
g6
sg21
F0.05177070828331333
sg22
I0
sg23
I600000
sg24
I494136
sg25
I00
sg26
I6
sg27
I422158
sg28
I213063
sg29
I01
sg30
I248146
sg31
I1576511
sg32
F30.0
sg33
F0.04411764705882353
sg34
F6.0
sg35
I281073
ssS'JAEDICKE ROBERT'
p335
(dp336
g3
g6
sg4
I0
sg5
g6
sg7
g6
sg8
I0
sg9
I00
sg10
I-25000
sg11
g6
sg13
g6
sg14
I-44093
sg15
g6
sg16
g6
sg17
g6
sg18
g6
sg19
I0
sg20
I108750
sg21
I0
sg22
I0
sg23
g6
sg24
I431750
sg25
I00
sg26
g6
sg27
g6
sg28
I44093
sg29
I00
sg30
g6
sg31
I83750
sg32
I0
sg33
I0
sg34
I0
sg35
I431750
ssS'WINOKUR JR. HERBERT S'
p337
(dp338
g3
g6
sg4
I0
sg5
g6
sg7
I1413
sg8
I0
sg9
I00
sg10
I-25000
sg11
g6
sg13
g6
sg14
g6
sg15
g6
sg16
g6
sg17
g6
sg18
g6
sg19
I0
sg20
I108579
sg21
I0
sg22
I0
sg23
g6
sg24
g6
sg25
I00
sg26
g6
sg27
g6
sg28
g6
sg29
I00
sg30
g6
sg31
I84992
sg32
I0
sg33
I0
sg34
I0
sg35
g6
ssS'BROWN MICHAEL'
p339
(dp340
g3
I1486
sg4
F0.008748317631224764
sg5
g6
sg7
I49288
sg8
F13.0
sg9
I00
sg10
g6
sg11
S'michael.brown@enron.com'
p341
sg13
I13
sg14
g6
sg15
I761
sg16
g6
sg17
I41
sg18
g6
sg19
F-3.713572066704308
sg20
g6
sg21
F0.03313856153366379
sg22
I0
sg23
g6
sg24
g6
sg25
I00
sg26
I1
sg27
g6
sg28
g6
sg29
I01
sg30
g6
sg31
I49288
sg32
F14.0
sg33
F0.024390243902439025
sg34
F1.0
sg35
g6
ssS'BADUM JAMES P'
p342
(dp343
g3
g6
sg4
I0
sg5
I178980
sg7
I3486
sg8
I0
sg9
I00
sg10
g6
sg11
g6
sg13
g6
sg14
g6
sg15
g6
sg16
g6
sg17
g6
sg18
g6
sg19
I0
sg20
g6
sg21
I0
sg22
I0
sg23
g6
sg24
I257817
sg25
I00
sg26
g6
sg27
g6
sg28
g6
sg29
I00
sg30
g6
sg31
I182466
sg32
I0
sg33
I0
sg34
I0
sg35
I257817
ssS'HUGHES JAMES A'
p344
(dp345
g3
I719
sg4
F0.048678720445062586
sg5
g6
sg7
g6
sg8
F35.0
sg9
I00
sg10
g6
sg11
S'james.hughes@enron.com'
p346
sg13
I35
sg14
g6
sg15
I589
sg16
g6
sg17
I34
sg18
g6
sg19
F-1.916922612182061
sg20
g6
sg21
F0.19573754397447435
sg22
I0
sg23
g6
sg24
I1118394
sg25
I00
sg26
I5
sg27
g6
sg28
I363428
sg29
I01
sg30
g6
sg31
g6
sg32
F40.0
sg33
F0.14705882352941177
sg34
F5.0
sg35
I754966
ssS'REYNOLDS LAWRENCE'
p347
(dp348
g3
g6
sg4
I0
sg5
I51365
sg7
I8409
sg8
I0
sg9
I00
sg10
I-200000
sg11
g6
sg13
g6
sg14
I-140264
sg15
g6
sg16
g6
sg17
g6
sg18
I202052
sg19
I0
sg20
g6
sg21
I0
sg22
I0
sg23
I100000
sg24
I4221891
sg25
I00
sg26
g6
sg27
I156250
sg28
I201483
sg29
I00
sg30
I76399
sg31
I394475
sg32
I0
sg33
I0
sg34
I0
sg35
I4160672
ssS'DIMICHELE RICHARD G'
p349
(dp350
g3
g6
sg4
I0
sg5
g6
sg7
I35812
sg8
I0
sg9
I00
sg10
g6
sg11
S'richard.dimichele@enron.com'
p351
sg13
g6
sg14
g6
sg15
g6
sg16
g6
sg17
g6
sg18
I374689
sg19
I0
sg20
g6
sg21
I0
sg22
I0
sg23
I1000000
sg24
I8317782
sg25
I00
sg26
g6
sg27
I694862
sg28
I126027
sg29
I00
sg30
I262788
sg31
I2368151
sg32
I0
sg33
I0
sg34
I0
sg35
I8191755
ssS'BHATNAGAR SANJAY'
p352
(dp353
g3
I523
sg4
F0.0
sg5
g6
sg7
g6
sg8
F1.0
sg9
I00
sg10
g6
sg11
S'sanjay.bhatnagar@enron.com'
p354
sg13
I0
sg14
I15456290
sg15
I463
sg16
g6
sg17
I29
sg18
I137864
sg19
F-3.367295829986474
sg20
I137864
sg21
F0.034482758620689655
sg22
I0
sg23
g6
sS'total_stock_value'
p355
S'NaN'
p356
sg25
I00
sg26
I1
sg27
g6
sg28
I-2604490
sg29
I01
sg30
g6
sg31
I15456290
sg32
F1.0
sg33
F0.034482758620689655
sg34
F0.0
sg35
I2604490
ssS'CARTER REBECCA C'
p357
(dp358
g3
I312
sg4
F0.09294871794871795
sg5
g6
sg7
g6
sg8
F29.0
sg9
I00
sg10
I-159792
sg11
S'rebecca.carter@enron.com'
p359
sg13
I29
sg14
I-307301
sg15
I196
sg16
g6
sg17
I15
sg18
I540
sg19
F-0.7621400520468967
sg20
g6
sg21
F0.5596153846153846
sg22
I0
sg23
I300000
sg24
g6
sg25
I00
sg26
I7
sg27
I75000
sg28
I307301
sg29
I01
sg30
I261809
sg31
I477557
sg32
F36.0
sg33
F0.4666666666666667
sg34
F7.0
sg35
g6
ssS'BUCHANAN HAROLD G'
p360
(dp361
g3
I1088
sg4
F0.0
sg5
g6
sg7
I600
sg8
F0.0
sg9
I00
sg10
g6
sg11
S'john.buchanan@enron.com'
p362
sg13
I0
sg14
g6
sg15
I23
sg16
g6
sg17
I125
sg18
I1215
sg19
F0.0
sg20
g6
sg21
F0.0
sg22
I0
sg23
I500000
sg24
I1014505
sg25
I00
sg26
I0
sg27
I304805
sg28
I189041
sg29
I01
sg30
I248017
sg31
I1054637
sg32
F0.0
sg33
F0.0
sg34
F0.0
sg35
I825464
ssS'YEAP SOON'
p363
(dp364
g3
g6
sg4
I0
sg5
g6
sg7
I55097
sg8
I0
sg9
I00
sg10
g6
sg11
g6
sg13
g6
sg14
g6
sg15
g6
sg16
g6
sg17
g6
sg18
g6
sg19
I0
sg20
g6
sg21
I0
sg22
I0
sg23
g6
sg24
I192758
sg25
I00
sg26
g6
sg27
g6
sg28
g6
sg29
I00
sg30
g6
sg31
I55097
sg32
I0
sg33
I0
sg34
I0
sg35
I192758
ssS'MURRAY JULIA H'
p365
(dp366
g3
I2192
sg4
F0.005018248175182482
sg5
g6
sg7
I57580
sg8
F11.0
sg9
I00
sg10
g6
sg11
S'julia.murray@enron.com'
p367
sg13
I11
sg14
g6
sg15
I395
sg16
g6
sg17
I45
sg18
I330
sg19
F-3.1135153092103742
sg20
g6
sg21
F0.04946269261962693
sg22
I0
sg23
I400000
sg24
I597461
sg25
I00
sg26
I2
sg27
I125000
sg28
I196983
sg29
I01
sg30
I229284
sg31
I812194
sg32
F13.0
sg33
F0.044444444444444446
sg34
F2.0
sg35
I400478
ssS'GARLAND C KEVIN'
p368
(dp369
g3
I209
sg4
F0.04784688995215311
sg5
g6
sg7
I48405
sg8
F27.0
sg9
I00
sg10
g6
sg11
S'kevin.garland@enron.com'
p370
sg13
I10
sg14
g6
sg15
I178
sg16
g6
sg17
I44
sg18
I60814
sg19
F-0.48835276791393206
sg20
g6
sg21
F0.6614832535885168
sg22
I0
sg23
I850000
sg24
I896153
sg25
I00
sg26
I27
sg27
I375304
sg28
I259907
sg29
I01
sg30
I231946
sg31
I1566469
sg32
F37.0
sg33
F0.6136363636363636
sg34
F10.0
sg35
I636246
ssS'DODSON KEITH'
p371
(dp372
g3
I176
sg4
F0.056818181818181816
sg5
g6
sg7
I28164
sg8
F10.0
sg9
I00
sg10
g6
sg11
S'keith.dodson@enron.com'
p373
sg13
I10
sg14
g6
sg15
I114
sg16
g6
sg17
I14
sg18
I774
sg19
F-1.540445040947149
sg20
g6
sg21
F0.27110389610389607
sg22
I0
sg23
I70000
sg24
g6
sg25
I00
sg26
I3
sg27
g6
sg28
g6
sg29
I01
sg30
I221003
sg31
I319941
sg32
F13.0
sg33
F0.21428571428571427
sg34
F3.0
sg35
g6
ssS'YEAGER F SCOTT'
p374
(dp375
g3
g6
sg4
I0
sg5
g6
sg7
I53947
sg8
I0
sg9
I01
sg10
g6
sg11
S'scott.yeager@enron.com'
p376
sg13
g6
sg14
g6
sg15
g6
sg16
g6
sg17
g6
sg18
I147950
sg19
I0
sg20
g6
sg21
I0
sg22
I0
sg23
g6
sg24
I11884758
sg25
I00
sg26
g6
sg27
g6
sg28
I3576206
sg29
I00
sg30
I158403
sg31
I360300
sg32
I0
sg33
I0
sg34
I0
sg35
I8308552
ssS'HIRKO JOSEPH'
p377
(dp378
g3
g6
sg4
I0
sg5
I10259
sg7
I77978
sg8
I0
sg9
I01
sg10
g6
sg11
S'joe.hirko@enron.com'
p379
sg13
g6
sg14
g6
sg15
g6
sg16
g6
sg17
g6
sg18
I2856
sg19
I0
sg20
g6
sg21
I0
sg22
I0
sg23
g6
sg24
I30766064
sg25
I00
sg26
g6
sg27
g6
sg28
g6
sg29
I00
sg30
g6
sg31
I91093
sg32
I0
sg33
I0
sg34
I0
sg35
I30766064
ssS'DIETRICH JANET R'
p380
(dp381
g3
I2572
sg4
F0.11858475894245724
sg5
g6
sg7
I3475
sg8
F305.0
sg9
I00
sg10
g6
sg11
S'janet.dietrich@enron.com'
p382
sg13
I305
sg14
g6
sg15
I1902
sg16
g6
sg17
I63
sg18
I473
sg19
F-1.5040773967762742
sg20
g6
sg21
F0.34080698116467945
sg22
I0
sg23
I600000
sg24
I1865087
sg25
I00
sg26
I14
sg27
I556416
sg28
I315068
sg29
I01
sg30
I250100
sg31
I1410464
sg32
F319.0
sg33
F0.2222222222222222
sg34
F14.0
sg35
I1550019
ssS'DERRICK JR. JAMES V'
p383
(dp384
g3
I2181
sg4
F0.029344337459880788
sg5
g6
sg7
I51124
sg8
F64.0
sg9
I00
sg10
I-1284000
sg11
S'james.derrick@enron.com'
p385
sg13
I64
sg14
I-1787380
sg15
I1401
sg16
g6
sg17
I909
sg18
I7482
sg19
F-3.816612820623488
sg20
g6
sg21
F0.05134653767990279
sg22
I0
sg23
I800000
sg24
I8831913
sg25
I00
sg26
I20
sg27
I484000
sg28
I1787380
sg29
I01
sg30
I492375
sg31
I550981
sg32
F84.0
sg33
F0.022002200220022004
sg34
F20.0
sg35
I8831913
ssS'FREVERT MARK A'
p386
(dp387
g3
I3275
sg4
F0.07389312977099237
sg5
I6426990
sg7
I86987
sg8
F242.0
sg9
I00
sg10
I-3367011
sg11
S'mark.frevert@enron.com'
p388
sg13
I242
sg14
g6
sg15
I2979
sg16
I2000000
sg17
I21
sg18
I7427621
sg19
F-1.252762968495368
sg20
g6
sg21
F0.3596074154852781
sg22
I0
sg23
I2000000
sg24
I14622185
sg25
I00
sg26
I6
sg27
I1617011
sg28
I4188667
sg29
I01
sg30
I1060932
sg31
I17252530
sg32
F248.0
sg33
F0.2857142857142857
sg34
F6.0
sg35
I10433518
ssS'PAI LOU L'
p389
(dp390
g3
g6
sg4
I0
sg5
g6
sg7
I32047
sg8
I0
sg9
I00
sg10
g6
sg11
S'lou.pai@enron.com'
p391
sg13
g6
sg14
g6
sg15
g6
sg16
g6
sg17
g6
sg18
I1829457
sg19
I0
sg20
g6
sg21
I0
sg22
I0
sg23
I1000000
sg24
I23817930
sg25
I00
sg26
g6
sg27
g6
sg28
I8453763
sg29
I00
sg30
I261879
sg31
I3123383
sg32
I0
sg33
I0
sg34
I0
sg35
I15364167
ssS'BAY FRANKLIN R'
p392
(dp393
g3
g6
sg4
I0
sg5
I260455
sg7
I129142
sg8
I0
sg9
I00
sg10
I-201641
sg11
S'frank.bay@enron.com'
p394
sg13
g6
sg14
I-82782
sg15
g6
sg16
g6
sg17
g6
sg18
I69
sg19
I0
sg20
g6
sg21
I0
sg22
I0
sg23
I400000
sg24
I63014
sg25
I00
sg26
g6
sg27
g6
sg28
I145796
sg29
I00
sg30
I239671
sg31
I827696
sg32
I0
sg33
I0
sg34
I0
sg35
g6
ssS'HAYSLETT RODERICK J'
p395
(dp396
g3
I2649
sg4
F0.01321253303133258
sg5
g6
sg7
g6
sg8
F38.0
sg9
I00
sg10
g6
sg11
S'rod.hayslett@enron.com'
p397
sg13
I35
sg14
g6
sg15
I571
sg16
g6
sg17
I1061
sg18
g6
sg19
F-3.329380978887597
sg20
g6
sg21
F0.04902780164584719
sg22
I2
sg23
g6
sg24
I346663
sg25
I00
sg26
I38
sg27
g6
sg28
I346663
sg29
I01
sg30
g6
sg31
g6
sg32
F73.0
sg33
F0.03581526861451461
sg34
F35.0
sg35
g6
ssS'FUGH JOHN L'
p398
(dp399
g3
g6
sg4
I0
sg5
I50591
sg7
g6
sg8
I0
sg9
I00
sg10
g6
sg11
g6
sg13
g6
sg14
g6
sg15
g6
sg16
g6
sg17
g6
sg18
g6
sg19
I0
sg20
g6
sg21
I0
sg22
I0
sg23
g6
sg24
I176378
sg25
I00
sg26
g6
sg27
g6
sg28
g6
sg29
I00
sg30
g6
sg31
I50591
sg32
I0
sg33
I0
sg34
I0
sg35
I176378
ssS'FALLON JAMES B'
p400
(dp401
g3
I1755
sg4
F0.023931623931623933
sg5
g6
sg7
I95924
sg8
F42.0
sg9
I00
sg10
g6
sg11
S'jim.fallon@enron.com'
p402
sg13
I42
sg14
g6
sg15
I1604
sg16
g6
sg17
I75
sg18
I401481
sg19
F-0.706570200892086
sg20
g6
sg21
F0.5172649572649572
sg22
I2
sg23
I2500000
sg24
I2332399
sg25
I00
sg26
I37
sg27
I374347
sg28
I1392142
sg29
I01
sg30
I304588
sg31
I3676340
sg32
F79.0
sg33
F0.49333333333333335
sg34
F37.0
sg35
I940257
ssS'KOENIG MARK E'
p403
(dp404
g3
I2374
sg4
F0.02232518955349621
sg5
g6
sg7
I127017
sg8
F53.0
sg9
I01
sg10
g6
sg11
S'mark.koenig@enron.com'
p405
sg13
I53
sg14
g6
sg15
I2271
sg16
g6
sg17
I61
sg18
I150458
sg19
F-1.4028236630711013
sg20
g6
sg21
F0.2682268288977585
sg22
I0
sg23
I700000
sg24
I1920055
sg25
I00
sg26
I15
sg27
I300000
sg28
I1248318
sg29
I01
sg30
I309946
sg31
I1587421
sg32
F68.0
sg33
F0.2459016393442623
sg34
F15.0
sg35
I671737
ssS'SAVAGE FRANK'
p406
(dp407
g3
g6
sg4
I0
sg5
g6
sg7
g6
sg8
I0
sg9
I00
sg10
I-121284
sg11
g6
sg13
g6
sg14
g6
sg15
g6
sg16
g6
sg17
g6
sg18
g6
sg19
I0
sg20
I125034
sg21
I0
sg22
I0
sg23
g6
sg24
g6
sg25
I00
sg26
g6
sg27
g6
sg28
g6
sg29
I00
sg30
g6
sg31
I3750
sg32
I0
sg33
I0
sg34
I0
sg35
g6
ssS'IZZO LAWRENCE L'
p408
(dp409
g3
I496
sg4
F0.056451612903225805
sg5
g6
sg7
I28093
sg8
F28.0
sg9
I00
sg10
g6
sg11
S'larry.izzo@enron.com'
p410
sg13
I28
sg14
g6
sg15
I437
sg16
g6
sg17
I19
sg18
I1553729
sg19
F-1.3350010667323402
sg20
g6
sg21
F0.3196095076400679
sg22
I0
sg23
g6
sg24
I5819980
sg25
I00
sg26
I5
sg27
I312500
sg28
I3654808
sg29
I01
sg30
I85274
sg31
I1979596
sg32
F33.0
sg33
F0.2631578947368421
sg34
F5.0
sg35
I2165172
ssS'TILNEY ELIZABETH A'
p411
(dp412
g3
I460
sg4
F0.021739130434782608
sg5
g6
sg7
g6
sg8
F11.0
sg9
I00
sg10
I-575000
sg11
S'elizabeth.tilney@enron.com'
p413
sg13
I10
sg14
g6
sg15
I379
sg16
g6
sg17
I19
sg18
I152055
sg19
F-0.5465437063680699
sg20
g6
sg21
F0.6006864988558352
sg22
I0
sg23
I300000
sg24
I1168042
sg25
I00
sg26
I11
sg27
I275000
sg28
I576792
sg29
I01
sg30
I247338
sg31
I399393
sg32
F21.0
sg33
F0.5789473684210527
sg34
F10.0
sg35
I591250
ssS'MARTIN AMANDA K'
p414
(dp415
g3
I1522
sg4
F0.005256241787122208
sg5
I85430
sg7
I8211
sg8
F8.0
sg9
I00
sg10
g6
sg11
S'a..martin@enron.com'
p416
sg13
I8
sg14
g6
sg15
I477
sg16
g6
sg17
I230
sg18
I2818454
sg19
F0.0
sg20
g6
sg21
F0.005256241787122208
sg22
I0
sg23
g6
sg24
I2070306
sg25
I00
sg26
I0
sg27
I5145434
sg28
g6
sg29
I01
sg30
I349487
sg31
I8407016
sg32
F8.0
sg33
F0.0
sg34
F0.0
sg35
I2070306
ssS'BUY RICHARD B'
p417
(dp418
g3
I3523
sg4
F0.04428044280442804
sg5
I649584
sg7
g6
sg8
F156.0
sg9
I00
sg10
I-694862
sg11
S'rick.buy@enron.com'
p419
sg13
I156
sg14
g6
sg15
I2333
sg16
g6
sg17
I1053
sg18
I400572
sg19
F-2.69671863509266
sg20
g6
sg21
F0.11170684356416213
sg22
I2
sg23
I900000
sg24
I3444470
sg25
I01
sg26
I71
sg27
I769862
sg28
I901657
sg29
I01
sg30
I330546
sg31
I2355702
sg32
F227.0
sg33
F0.06742640075973409
sg34
F71.0
sg35
I2542813
ssS'GRAMM WENDY L'
p420
(dp421
g3
g6
sg4
I0
sg5
g6
sg7
g6
sg8
I0
sg9
I00
sg10
g6
sg11
g6
sg13
g6
sg14
g6
sg15
g6
sg16
g6
sg17
g6
sg18
g6
sg19
I0
sg20
I119292
sg21
I0
sg22
I0
sg23
g6
sg24
g6
sg25
I00
sg26
g6
sg27
g6
sg28
g6
sg29
I00
sg30
g6
sg31
I119292
sg32
I0
sg33
I0
sg34
I0
sg35
g6
ssS'CAUSEY RICHARD A'
p422
(dp423
g3
I1892
sg4
F0.0306553911205074
sg5
g6
sg7
I30674
sg8
F58.0
sg9
I01
sg10
I-235000
sg11
S'richard.causey@enron.com'
p424
sg13
I58
sg14
g6
sg15
I1585
sg16
g6
sg17
I49
sg18
I307895
sg19
F-1.4069136483226263
sg20
g6
sg21
F0.2755533503041809
sg22
I0
sg23
I1000000
sg24
I2502063
sg25
I00
sg26
I12
sg27
I350000
sg28
I2502063
sg29
I01
sg30
I415189
sg31
I1868758
sg32
F70.0
sg33
F0.24489795918367346
sg34
F12.0
sg35
g6
ssS'TAYLOR MITCHELL S'
p425
(dp426
g3
I533
sg4
F0.0
sg5
I227449
sg7
g6
sg8
F0.0
sg9
I00
sg10
g6
sg11
S'mitchell.taylor@enron.com'
p427
sg13
I0
sg14
g6
sg15
I300
sg16
g6
sg17
I29
sg18
g6
sg19
F0.0
sg20
g6
sg21
F0.0
sg22
I0
sg23
I600000
sg24
I3745048
sg25
I00
sg26
I0
sg27
g6
sg28
I563798
sg29
I01
sg30
I265214
sg31
I1092663
sg32
F0.0
sg33
F0.0
sg34
F0.0
sg35
I3181250
ssS'DONAHUE JR JEFFREY M'
p428
(dp429
g3
I865
sg4
F0.21734104046242775
sg5
g6
sg7
I96268
sg8
F188.0
sg9
I00
sg10
I-300000
sg11
S'jeff.donahue@enron.com'
p430
sg13
I188
sg14
g6
sg15
I772
sg16
g6
sg17
I22
sg18
I891
sg19
F-0.6931471805599453
sg20
g6
sg21
F0.7173410404624277
sg22
I0
sg23
I800000
sg24
I1080988
sg25
I00
sg26
I11
sg27
g6
sg28
I315068
sg29
I01
sg30
I278601
sg31
I875760
sg32
F199.0
sg33
F0.5
sg34
F11.0
sg35
I765920
ssS'GLISAN JR BEN F'
p431
(dp432
g3
I873
sg4
F0.05956471935853379
sg5
g6
sg7
I125978
sg8
F52.0
sg9
I01
sg10
g6
sg11
S'ben.glisan@enron.com'
p433
sg13
I52
sg14
g6
sg15
I874
sg16
g6
sg17
I16
sg18
I200308
sg19
F-0.9808292530117262
sg20
g6
sg21
F0.4345647193585338
sg22
I0
sg23
I600000
sg24
I778546
sg25
I00
sg26
I6
sg27
I71023
sg28
I393818
sg29
I01
sg30
I274975
sg31
I1272284
sg32
F58.0
sg33
F0.375
sg34
F6.0
sg35
I384728
ss.