(dp0
S'METTS MARK'
p1
(dp2
S'to_messages'
p3
I807
sS'to_ratio'
p4
F0.04708798017348203
sS'deferral_payments'
p5
S'NaN'
p6
sS'expenses'
p7
I94299
sS'comm_max'
p8
F38.0
sS'poi'
p9
I00
sS'deferred_income'
p10
g6
sS'email_address'
p11
S'mark.metts@enron.com'
p12
sS'long_term_incentive'
p13
g6
sS'restricted_stock_deferred'
p14
g6
sS'shared_receipt_with_poi'
p15
I702
sS'loan_advances'
p16
g6
sS'from_messages'
p17
I29
sS'other'
p18
I1740
sS'director_fees'
p19
g6
sS'comm_ratio'
p20
F0.08157073879417168
sS'comm2'
p21
I0
sS'bonus'
p22
I600000
sS'total_stock_value'
p23
I585062
sS'from_poi_to_this_person'
p24
I38
sS'comm'
p25
I00
sS'from_this_person_to_poi'
p26
I1
sS'restricted_stock'
p27
I585062
sS'maildata'
p28
I01
sS'salary'
p29
I365788
sS'total_payments'
p30
I1061827
sS'comm_sum'
p31
F39.0
sS'from_ratio'
p32
F0.034482758620689655
sS'comm_min'
p33
F1.0
sS'exercised_stock_options'
p34
g6
ssS'BAXTER JOHN C'
p35
(dp36
g3
g6
sg4
I0
sg5
I1295738
sg7
I11200
sg8
I0
sg9
I00
sg10
I-1386055
sg11
g6
sg13
I1586055
sg14
g6
sg15
g6
sg16
g6
sg17
g6
sg18
I2660303
sg19
g6
sg20
I0
sg21
I0
sg22
I1200000
sg23
I10623258
sg24
g6
sg25
I00
sg26
g6
sg27
I3942714
sg28
I00
sg29
I267102
sg30
I5634343
sg31
I0
sg32
I0
sg33
I0
sg34
I6680544
ssS'ELLIOTT STEVEN'
p37
(dp38
g3
g6
sg4
I0
sg5
g6
sg7
I78552
sg8
I0
sg9
I00
sg10
I-400729
sg11
S'steven.elliott@enron.com'
p39
sg13
g6
sg14
g6
sg15
g6
sg16
g6
sg17
g6
sg18
I12961
sg19
g6
sg20
I0
sg21
I0
sg22
I350000
sg23
I6678735
sg24
g6
sg25
I00
sg26
g6
sg27
I1788391
sg28
I00
sg29
I170941
sg30
I211725
sg31
I0
sg32
I0
sg33
I0
sg34
I4890344
ssS'CORDES WILLIAM R'
p40
(dp41
g3
I764
sg4
F0.013089005235602094
sg5
g6
sg7
g6
sg8
F10.0
sg9
I00
sg10
g6
sg11
S'bill.cordes@enron.com'
p42
sg13
g6
sg14
g6
sg15
I58
sg16
g6
sg17
I12
sg18
g6
sg19
g6
sg20
F0.013089005235602094
sg21
I0
sg22
g6
sg23
I1038185
sg24
I10
sg25
I00
sg26
I0
sg27
I386335
sg28
I01
sg29
g6
sg30
g6
sg31
F10.0
sg32
F0.0
sg33
F0.0
sg34
I651850
ssS'HANNON KEVIN P'
p43
(dp44
g3
I1045
sg4
F0.03062200956937799
sg5
g6
sg7
I34039
sg8
F32.0
sg9
I01
sg10
I-3117011
sg11
S'kevin.hannon@enron.com'
p45
sg13
I1617011
sg14
g6
sg15
I1035
sg16
g6
sg17
I32
sg18
I11350
sg19
g6
sg20
F0.686872009569378
sg21
I0
sg22
I1500000
sg23
I6391065
sg24
I32
sg25
I00
sg26
I21
sg27
I853064
sg28
I01
sg29
I243293
sg30
I288682
sg31
F53.0
sg32
F0.65625
sg33
F21.0
sg34
I5538001
ssS'MORDAUNT KRISTINA M'
p46
(dp47
g3
g6
sg4
I0
sg5
g6
sg7
I35018
sg8
I0
sg9
I00
sg10
g6
sg11
S'kristina.mordaunt@enron.com'
p48
sg13
g6
sg14
g6
sg15
g6
sg16
g6
sg17
g6
sg18
I1411
sg19
g6
sg20
I0
sg21
I0
sg22
I325000
sg23
I208510
sg24
g6
sg25
I00
sg26
g6
sg27
I208510
sg28
I00
sg29
I267093
sg30
I628522
sg31
I0
sg32
I0
sg33
I0
sg34
g6
ssS'MEYER ROCKFORD G'
p49
(dp50
g3
I232
sg4
F0.0
sg5
I1848227
sg7
g6
sg8
F0.0
sg9
I00
sg10
g6
sg11
S'rockford.meyer@enron.com'
p51
sg13
g6
sg14
g6
sg15
I22
sg16
g6
sg17
I28
sg18
g6
sg19
g6
sg20
F0.0
sg21
I0
sg22
g6
sg23
I955873
sg24
I0
sg25
I00
sg26
I0
sg27
I462384
sg28
I01
sg29
g6
sg30
I1848227
sg31
F0.0
sg32
F0.0
sg33
F0.0
sg34
I493489
ssS'MCMAHON JEFFREY'
p52
(dp53
g3
I2355
sg4
F0.024628450106157114
sg5
g6
sg7
I137108
sg8
F58.0
sg9
I00
sg10
g6
sg11
S'jeffrey.mcmahon@enron.com'
p54
sg13
I694862
sg14
g6
sg15
I2228
sg16
g6
sg17
I48
sg18
I297353
sg19
g6
sg20
F0.5662951167728237
sg21
I0
sg22
I2600000
sg23
I1662855
sg24
I58
sg25
I00
sg26
I26
sg27
I558801
sg28
I01
sg29
I370448
sg30
I4099771
sg31
F84.0
sg32
F0.5416666666666666
sg33
F26.0
sg34
I1104054
ssS'HORTON STANLEY C'
p55
(dp56
g3
I2350
sg4
F0.01872340425531915
sg5
I3131860
sg7
g6
sg8
F44.0
sg9
I00
sg10
g6
sg11
S'stanley.horton@enron.com'
p57
sg13
g6
sg14
g6
sg15
I1074
sg16
g6
sg17
I1073
sg18
g6
sg19
g6
sg20
F0.032702900993436576
sg21
I0
sg22
g6
sg23
I7256648
sg24
I44
sg25
I00
sg26
I15
sg27
I2046079
sg28
I01
sg29
g6
sg30
I3131860
sg31
F59.0
sg32
F0.013979496738117428
sg33
F15.0
sg34
I5210569
ssS'PIPER GREGORY F'
p58
(dp59
g3
I1238
sg4
F0.049273021001615507
sg5
I1130036
sg7
I43057
sg8
F61.0
sg9
I00
sg10
I-33333
sg11
S'greg.piper@enron.com'
p60
sg13
g6
sg14
I-409554
sg15
I742
sg16
g6
sg17
I222
sg18
I778
sg19
g6
sg20
F0.26548923721783174
sg21
I2
sg22
I400000
sg23
I880290
sg24
I61
sg25
I00
sg26
I48
sg27
I409554
sg28
I01
sg29
I197091
sg30
I1737629
sg31
F109.0
sg32
F0.21621621621621623
sg33
F48.0
sg34
I880290
ssS'HUMPHREY GENE E'
p61
(dp62
g3
I128
sg4
F0.078125
sg5
I2964506
sg7
I4994
sg8
F17.0
sg9
I00
sg10
g6
sg11
S'gene.humphrey@enron.com'
p63
sg13
g6
sg14
g6
sg15
I119
sg16
g6
sg17
I17
sg18
g6
sg19
g6
sg20
F1.078125
sg21
I0
sg22
g6
sg23
I2282768
sg24
I10
sg25
I00
sg26
I17
sg27
g6
sg28
I01
sg29
I130724
sg30
I3100224
sg31
F27.0
sg32
F1.0
sg33
F10.0
sg34
I2282768
ssS'UMANOFF ADAM S'
p64
(dp65
g3
I111
sg4
F0.10810810810810811
sg5
g6
sg7
I53122
sg8
F12.0
sg9
I00
sg10
g6
sg11
S'adam.umanoff@enron.com'
p66
sg13
g6
sg14
g6
sg15
I41
sg16
g6
sg17
I18
sg18
g6
sg19
g6
sg20
F0.10810810810810811
sg21
I0
sg22
I788750
sg23
g6
sg24
I12
sg25
I00
sg26
I0
sg27
g6
sg28
I01
sg29
I288589
sg30
I1130461
sg31
F12.0
sg32
F0.0
sg33
F0.0
sg34
g6
ssS'BLACHMAN JEREMY M'
p67
(dp68
g3
I2475
sg4
F0.010101010101010102
sg5
g6
sg7
I84208
sg8
F25.0
sg9
I00
sg10
g6
sg11
S'jeremy.blachman@enron.com'
p69
sg13
I831809
sg14
g6
sg15
I2326
sg16
g6
sg17
I14
sg18
I272
sg19
g6
sg20
F0.15295815295815296
sg21
I0
sg22
I850000
sg23
I954354
sg24
I25
sg25
I00
sg26
I2
sg27
I189041
sg28
I01
sg29
I248546
sg30
I2014835
sg31
F27.0
sg32
F0.14285714285714285
sg33
F2.0
sg34
I765313
ssS'SUNDE MARTIN'
p70
(dp71
g3
I2647
sg4
F0.013978088401964487
sg5
g6
sg7
g6
sg8
F37.0
sg9
I00
sg10
g6
sg11
S'marty.sunde@enron.com'
p72
sg13
I476451
sg14
g6
sg15
I2565
sg16
g6
sg17
I38
sg18
I111122
sg19
g6
sg20
F0.3560833515598592
sg21
I0
sg22
I700000
sg23
I698920
sg24
I37
sg25
I00
sg26
I13
sg27
I698920
sg28
I01
sg29
I257486
sg30
I1545059
sg31
F50.0
sg32
F0.34210526315789475
sg33
F13.0
sg34
g6
ssS'GIBBS DANA R'
p73
(dp74
g3
I169
sg4
F0.0
sg5
I504610
sg7
g6
sg8
F0.0
sg9
I00
sg10
g6
sg11
S'dana.gibbs@enron.com'
p75
sg13
I461912
sg14
g6
sg15
I23
sg16
g6
sg17
I12
sg18
g6
sg19
g6
sg20
F0.0
sg21
I0
sg22
g6
sg23
I2218275
sg24
I0
sg25
I00
sg26
I0
sg27
g6
sg28
I01
sg29
g6
sg30
I966522
sg31
F0.0
sg32
F0.0
sg33
F0.0
sg34
I2218275
ssS'LOWRY CHARLES P'
p76
(dp77
g3
g6
sg4
I0
sg5
g6
sg7
g6
sg8
I0
sg9
I00
sg10
g6
sg11
g6
sg13
g6
sg14
I-153686
sg15
g6
sg16
g6
sg17
g6
sg18
g6
sg19
g6
sg20
I0
sg21
I0
sg22
g6
sg23
I372205
sg24
g6
sg25
I00
sg26
g6
sg27
I153686
sg28
I00
sg29
g6
sg30
g6
sg31
I0
sg32
I0
sg33
I0
sg34
I372205
ssS'COLWELL WESLEY'
p78
(dp79
g3
I1758
sg4
F0.13651877133105803
sg5
I27610
sg7
I16514
sg8
F240.0
sg9
I01
sg10
I-144062
sg11
S'wes.colwell@enron.com'
p80
sg13
g6
sg14
g6
sg15
I1132
sg16
g6
sg17
I40
sg18
I101740
sg19
g6
sg20
F0.4115187713310581
sg21
I0
sg22
I1200000
sg23
I698242
sg24
I240
sg25
I00
sg26
I11
sg27
I698242
sg28
I01
sg29
I288542
sg30
I1490344
sg31
F251.0
sg32
F0.275
sg33
F11.0
sg34
g6
ssS'MULLER MARK S'
p81
(dp82
g3
I136
sg4
F0.08823529411764706
sg5
I842924
sg7
g6
sg8
F12.0
sg9
I00
sg10
I-719000
sg11
S's..muller@enron.com'
p83
sg13
I1725545
sg14
g6
sg15
I114
sg16
g6
sg17
I16
sg18
I947
sg19
g6
sg20
F0.08823529411764706
sg21
I0
sg22
I1100000
sg23
I1416848
sg24
I12
sg25
I00
sg26
I0
sg27
I360528
sg28
I01
sg29
I251654
sg30
I3202070
sg31
F12.0
sg32
F0.0
sg33
F0.0
sg34
I1056320
ssS'JACKSON CHARLENE R'
p84
(dp85
g3
I258
sg4
F0.09689922480620156
sg5
g6
sg7
I10181
sg8
F25.0
sg9
I00
sg10
g6
sg11
S'charlene.jackson@enron.com'
p86
sg13
g6
sg14
g6
sg15
I117
sg16
g6
sg17
I56
sg18
I2435
sg19
g6
sg20
F0.43618493909191586
sg21
I0
sg22
I250000
sg23
I725735
sg24
I25
sg25
I00
sg26
I19
sg27
I540672
sg28
I01
sg29
I288558
sg30
I551174
sg31
F44.0
sg32
F0.3392857142857143
sg33
F19.0
sg34
I185063
ssS'WESTFAHL RICHARD K'
p87
(dp88
g3
g6
sg4
I0
sg5
g6
sg7
I51870
sg8
I0
sg9
I00
sg10
I-10800
sg11
S'dick.westfahl@enron.com'
p89
sg13
I256191
sg14
g6
sg15
g6
sg16
g6
sg17
g6
sg18
I401130
sg19
g6
sg20
I0
sg21
I0
sg22
g6
sg23
I384930
sg24
g6
sg25
I00
sg26
g6
sg27
I384930
sg28
I00
sg29
I63744
sg30
I762135
sg31
I0
sg32
I0
sg33
I0
sg34
g6
ssS'WALTERS GARETH W'
p90
(dp91
g3
g6
sg4
I0
sg5
I53625
sg7
I33785
sg8
I0
sg9
I00
sg10
g6
sg11
g6
sg13
g6
sg14
g6
sg15
g6
sg16
g6
sg17
g6
sg18
g6
sg19
g6
sg20
I0
sg21
I0
sg22
g6
sg23
I1030329
sg24
g6
sg25
I00
sg26
g6
sg27
g6
sg28
I00
sg29
g6
sg30
I87410
sg31
I0
sg32
I0
sg33
I0
sg34
I1030329
ssS'WALLS JR ROBERT H'
p92
(dp93
g3
I671
sg4
F0.02533532041728763
sg5
g6
sg7
I50936
sg8
F17.0
sg9
I00
sg10
g6
sg11
S'rob.walls@enron.com'
p94
sg13
I540751
sg14
g6
sg15
I215
sg16
g6
sg17
I146
sg18
I2
sg19
g6
sg20
F0.02533532041728763
sg21
I0
sg22
I850000
sg23
I5898997
sg24
I17
sg25
I00
sg26
I0
sg27
I1552453
sg28
I01
sg29
I357091
sg30
I1798780
sg31
F17.0
sg32
F0.0
sg33
F0.0
sg34
I4346544
ssS'KITCHEN LOUISE'
p95
(dp96
g3
I8305
sg4
F0.030222757375075255
sg5
g6
sg7
I5774
sg8
F251.0
sg9
I00
sg10
g6
sg11
S'louise.kitchen@enron.com'
p97
sg13
g6
sg14
g6
sg15
I3669
sg16
g6
sg17
I1728
sg18
I93925
sg19
g6
sg20
F0.14249127589359378
sg21
I2
sg22
I3100000
sg23
I547143
sg24
I251
sg25
I01
sg26
I194
sg27
I466101
sg28
I01
sg29
I271442
sg30
I3471141
sg31
F445.0
sg32
F0.11226851851851852
sg33
F194.0
sg34
I81042
ssS'CHAN RONNIE'
p98
(dp99
g3
g6
sg4
I0
sg5
g6
sg7
g6
sg8
I0
sg9
I00
sg10
I-98784
sg11
g6
sg13
g6
sg14
I-32460
sg15
g6
sg16
g6
sg17
g6
sg18
g6
sg19
I98784
sg20
I0
sg21
I0
sg22
g6
sg23
g6
sg24
g6
sg25
I00
sg26
g6
sg27
I32460
sg28
I00
sg29
g6
sg30
g6
sg31
I0
sg32
I0
sg33
I0
sg34
g6
ssS'BELFER ROBERT'
p100
(dp101
g3
g6
sg4
I0
sg5
I-102500
sg7
g6
sg8
I0
sg9
I00
sg10
g6
sg11
g6
sg13
g6
sg14
I44093
sg15
g6
sg16
g6
sg17
g6
sg18
g6
sg19
I3285
sg20
I0
sg21
I0
sg22
g6
sg23
I-44093
sg24
g6
sg25
I00
sg26
g6
sg27
g6
sg28
I00
sg29
g6
sg30
I102500
sg31
I0
sg32
I0
sg33
I0
sg34
I3285
ssS'SHANKMAN JEFFREY A'
p102
(dp103
g3
I3221
sg4
F0.029183483390251473
sg5
g6
sg7
I178979
sg8
F94.0
sg9
I00
sg10
g6
sg11
S'jeffrey.shankman@enron.com'
p104
sg13
I554422
sg14
g6
sg15
I1730
sg16
g6
sg17
I2681
sg18
I1191
sg19
g6
sg20
F0.06014208092848347
sg21
I2
sg22
I2000000
sg23
I2072035
sg24
I94
sg25
I01
sg26
I83
sg27
I630137
sg28
I01
sg29
I304110
sg30
I3038702
sg31
F177.0
sg32
F0.030958597538232
sg33
F83.0
sg34
I1441898
ssS'WODRASKA JOHN'
p105
(dp106
g3
g6
sg4
I0
sg5
g6
sg7
g6
sg8
I0
sg9
I00
sg10
g6
sg11
S'john.wodraska@enron.com'
p107
sg13
g6
sg14
g6
sg15
g6
sg16
g6
sg17
g6
sg18
I189583
sg19
g6
sg20
I0
sg21
I0
sg22
g6
sg23
g6
sg24
g6
sg25
I00
sg26
g6
sg27
g6
sg28
I00
sg29
g6
sg30
I189583
sg31
I0
sg32
I0
sg33
I0
sg34
g6
ssS'BERGSIEKER RICHARD P'
p108
(dp109
g3
I383
sg4
F0.010443864229765013
sg5
g6
sg7
I59175
sg8
F4.0
sg9
I00
sg10
I-485813
sg11
S'rick.bergsieker@enron.com'
p110
sg13
I180250
sg14
g6
sg15
I233
sg16
g6
sg17
I59
sg18
I427316
sg19
g6
sg20
F0.010443864229765013
sg21
I0
sg22
I250000
sg23
I659249
sg24
I4
sg25
I00
sg26
I0
sg27
I659249
sg28
I01
sg29
I187922
sg30
I618850
sg31
F4.0
sg32
F0.0
sg33
F0.0
sg34
g6
ssS'URQUHART JOHN A'
p111
(dp112
g3
g6
sg4
I0
sg5
g6
sg7
I228656
sg8
I0
sg9
I00
sg10
I-36666
sg11
g6
sg13
g6
sg14
g6
sg15
g6
sg16
g6
sg17
g6
sg18
g6
sg19
I36666
sg20
I0
sg21
I0
sg22
g6
sg23
g6
sg24
g6
sg25
I00
sg26
g6
sg27
g6
sg28
I00
sg29
g6
sg30
I228656
sg31
I0
sg32
I0
sg33
I0
sg34
g6
ssS'BIBI PHILIPPE A'
p113
(dp114
g3
I1607
sg4
F0.01431238332296204
sg5
g6
sg7
I38559
sg8
F23.0
sg9
I00
sg10
g6
sg11
S'philippe.bibi@enron.com'
p115
sg13
I369721
sg14
g6
sg15
I1336
sg16
g6
sg17
I40
sg18
I425688
sg19
g6
sg20
F0.21431238332296204
sg21
I0
sg22
I1000000
sg23
I1843816
sg24
I23
sg25
I00
sg26
I8
sg27
I378082
sg28
I01
sg29
I213625
sg30
I2047593
sg31
F31.0
sg32
F0.2
sg33
F8.0
sg34
I1465734
ssS'RIEKER PAULA H'
p116
(dp117
g3
I1328
sg4
F0.02635542168674699
sg5
I214678
sg7
I33271
sg8
F48.0
sg9
I01
sg10
I-100000
sg11
S'paula.rieker@enron.com'
p118
sg13
g6
sg14
g6
sg15
I1258
sg16
g6
sg17
I82
sg18
I1950
sg19
g6
sg20
F0.6117212753452835
sg21
I2
sg22
I700000
sg23
I1918887
sg24
I35
sg25
I00
sg26
I48
sg27
I283649
sg28
I01
sg29
I249201
sg30
I1099100
sg31
F83.0
sg32
F0.5853658536585366
sg33
F35.0
sg34
I1635238
ssS'WHALEY DAVID A'
p119
(dp120
g3
g6
sg4
I0
sg5
g6
sg7
g6
sg8
I0
sg9
I00
sg10
g6
sg11
g6
sg13
g6
sg14
g6
sg15
g6
sg16
g6
sg17
g6
sg18
g6
sg19
g6
sg20
I0
sg21
I0
sg22
g6
sg23
I98718
sg24
g6
sg25
I00
sg26
g6
sg27
g6
sg28
I00
sg29
g6
sg30
g6
sg31
I0
sg32
I0
sg33
I0
sg34
I98718
ssS'BECK SALLY W'
p121
(dp122
g3
I7315
sg4
F0.01968557758031442
sg5
g6
sg7
I37172
sg8
F386.0
sg9
I00
sg10
g6
sg11
S'sally.beck@enron.com'
p123
sg13
g6
sg14
g6
sg15
I2639
sg16
g6
sg17
I4343
sg18
I566
sg19
g6
sg20
F0.10856423288770563
sg21
I2
sg22
I700000
sg23
I126027
sg24
I144
sg25
I01
sg26
I386
sg27
I126027
sg28
I01
sg29
I231330
sg30
I969068
sg31
F530.0
sg32
F0.08887865530739121
sg33
F144.0
sg34
g6
ssS'HAUG DAVID L'
p124
(dp125
g3
I573
sg4
F0.006980802792321117
sg5
g6
sg7
I475
sg8
F7.0
sg9
I00
sg10
g6
sg11
S'david.haug@enron.com'
p126
sg13
g6
sg14
g6
sg15
I471
sg16
g6
sg17
I19
sg18
g6
sg19
g6
sg20
F0.37540185542390003
sg21
I0
sg22
g6
sg23
I2217299
sg24
I4
sg25
I00
sg26
I7
sg27
I2217299
sg28
I01
sg29
g6
sg30
I475
sg31
F11.0
sg32
F0.3684210526315789
sg33
F4.0
sg34
g6
ssS'ECHOLS JOHN B'
p127
(dp128
g3
g6
sg4
I0
sg5
g6
sg7
I21530
sg8
I0
sg9
I00
sg10
g6
sg11
S'john.echols@enron.com'
p129
sg13
I2234774
sg14
g6
sg15
g6
sg16
g6
sg17
g6
sg18
I53775
sg19
g6
sg20
I0
sg21
I0
sg22
I200000
sg23
I1008941
sg24
g6
sg25
I00
sg26
g6
sg27
I407503
sg28
I00
sg29
I182245
sg30
I2692324
sg31
I0
sg32
I0
sg33
I0
sg34
I601438
ssS'MENDELSOHN JOHN'
p130
(dp131
g3
g6
sg4
I0
sg5
g6
sg7
I148
sg8
I0
sg9
I00
sg10
I-103750
sg11
g6
sg13
g6
sg14
g6
sg15
g6
sg16
g6
sg17
g6
sg18
g6
sg19
I103750
sg20
I0
sg21
I0
sg22
g6
sg23
g6
sg24
g6
sg25
I00
sg26
g6
sg27
g6
sg28
I00
sg29
g6
sg30
I148
sg31
I0
sg32
I0
sg33
I0
sg34
g6
ssS'HICKERSON GARY J'
p132
(dp133
g3
I1320
sg4
F0.030303030303030304
sg5
g6
sg7
I98849
sg8
F40.0
sg9
I00
sg10
g6
sg11
S'gary.hickerson@enron.com'
p134
sg13
I69223
sg14
g6
sg15
I900
sg16
g6
sg17
I27
sg18
I1936
sg19
g6
sg20
F0.06734006734006734
sg21
I0
sg22
I1700000
sg23
I441096
sg24
I40
sg25
I00
sg26
I1
sg27
I441096
sg28
I01
sg29
I211788
sg30
I2081796
sg31
F41.0
sg32
F0.037037037037037035
sg33
F1.0
sg34
g6
ssS'CLINE KENNETH W'
p135
(dp136
g3
g6
sg4
I0
sg5
g6
sg7
g6
sg8
I0
sg9
I00
sg10
g6
sg11
g6
sg13
g6
sg14
I-472568
sg15
g6
sg16
g6
sg17
g6
sg18
g6
sg19
g6
sg20
I0
sg21
I0
sg22
g6
sg23
I189518
sg24
g6
sg25
I00
sg26
g6
sg27
I662086
sg28
I00
sg29
g6
sg30
g6
sg31
I0
sg32
I0
sg33
I0
sg34
g6
ssS'LEWIS RICHARD'
p137
(dp138
g3
I952
sg4
F0.01050420168067227
sg5
g6
sg7
g6
sg8
F10.0
sg9
I00
sg10
g6
sg11
S'richard.lewis@enron.com'
p139
sg13
g6
sg14
g6
sg15
I739
sg16
g6
sg17
I26
sg18
g6
sg19
g6
sg20
F0.01050420168067227
sg21
I0
sg22
g6
sg23
I850477
sg24
I10
sg25
I00
sg26
I0
sg27
g6
sg28
I01
sg29
g6
sg30
g6
sg31
F10.0
sg32
F0.0
sg33
F0.0
sg34
I850477
ssS'HAYES ROBERT E'
p140
(dp141
g3
I504
sg4
F0.031746031746031744
sg5
I7961
sg7
g6
sg8
F16.0
sg9
I00
sg10
g6
sg11
S'robert.hayes@enron.com'
p142
sg13
g6
sg14
g6
sg15
I50
sg16
g6
sg17
I12
sg18
g6
sg19
g6
sg20
F0.031746031746031744
sg21
I0
sg22
g6
sg23
I151418
sg24
I16
sg25
I00
sg26
I0
sg27
I151418
sg28
I01
sg29
g6
sg30
I7961
sg31
F16.0
sg32
F0.0
sg33
F0.0
sg34
g6
ssS'MCCARTY DANNY J'
p143
(dp144
g3
I1433
sg4
F0.017445917655268667
sg5
g6
sg7
g6
sg8
F25.0
sg9
I00
sg10
g6
sg11
S'danny.mccarty@enron.com'
p145
sg13
g6
sg14
g6
sg15
I508
sg16
g6
sg17
I215
sg18
g6
sg19
g6
sg20
F0.026748243236664016
sg21
I0
sg22
g6
sg23
I758931
sg24
I25
sg25
I00
sg26
I2
sg27
I94556
sg28
I01
sg29
g6
sg30
g6
sg31
F27.0
sg32
F0.009302325581395349
sg33
F2.0
sg34
I664375
ssS'KOPPER MICHAEL J'
p146
(dp147
g3
g6
sg4
I0
sg5
g6
sg7
I118134
sg8
I0
sg9
I01
sg10
g6
sg11
S'michael.kopper@enron.com'
p148
sg13
I602671
sg14
g6
sg15
g6
sg16
g6
sg17
g6
sg18
I907502
sg19
g6
sg20
I0
sg21
I0
sg22
I800000
sg23
I985032
sg24
g6
sg25
I00
sg26
g6
sg27
I985032
sg28
I00
sg29
I224305
sg30
I2652612
sg31
I0
sg32
I0
sg33
I0
sg34
g6
ssS'LEFF DANIEL P'
p149
(dp150
g3
I2822
sg4
F0.02374202693125443
sg5
g6
sg7
g6
sg8
F67.0
sg9
I00
sg10
g6
sg11
S'dan.leff@enron.com'
p151
sg13
I1387399
sg14
g6
sg15
I2672
sg16
g6
sg17
I63
sg18
I3083
sg19
g6
sg20
F0.24596424915347664
sg21
I0
sg22
I1000000
sg23
I360528
sg24
I67
sg25
I00
sg26
I14
sg27
I360528
sg28
I01
sg29
I273746
sg30
I2664228
sg31
F81.0
sg32
F0.2222222222222222
sg33
F14.0
sg34
g6
ssS'LAVORATO JOHN J'
p152
(dp153
g3
I7259
sg4
F0.07273729163796666
sg5
g6
sg7
I49537
sg8
F528.0
sg9
I00
sg10
g6
sg11
S'john.lavorato@enron.com'
p154
sg13
I2035380
sg14
g6
sg15
I3962
sg16
g6
sg17
I2585
sg18
I1552
sg19
g6
sg20
F0.23173148893003628
sg21
I2
sg22
I8000000
sg23
I5167144
sg24
I528
sg25
I01
sg26
I411
sg27
I1008149
sg28
I01
sg29
I339288
sg30
I10425757
sg31
F939.0
sg32
F0.15899419729206962
sg33
F411.0
sg34
I4158995
ssS'BERBERIAN DAVID'
p155
(dp156
g3
g6
sg4
I0
sg5
g6
sg7
I11892
sg8
I0
sg9
I00
sg10
g6
sg11
S'david.berberian@enron.com'
p157
sg13
g6
sg14
g6
sg15
g6
sg16
g6
sg17
g6
sg18
g6
sg19
g6
sg20
I0
sg21
I0
sg22
g6
sg23
I2493616
sg24
g6
sg25
I00
sg26
g6
sg27
I869220
sg28
I00
sg29
I216582
sg30
I228474
sg31
I0
sg32
I0
sg33
I0
sg34
I1624396
ssS'DETMERING TIMOTHY J'
p158
(dp159
g3
g6
sg4
I0
sg5
I875307
sg7
I52255
sg8
I0
sg9
I00
sg10
I-775241
sg11
S'timothy.detmering@enron.com'
p160
sg13
I415657
sg14
I-315068
sg15
g6
sg16
g6
sg17
g6
sg18
I1105
sg19
g6
sg20
I0
sg21
I0
sg22
I425000
sg23
I2027865
sg24
g6
sg25
I00
sg26
g6
sg27
I315068
sg28
I00
sg29
I210500
sg30
I1204583
sg31
I0
sg32
I0
sg33
I0
sg34
I2027865
ssS'WAKEHAM JOHN'
p161
(dp162
g3
g6
sg4
I0
sg5
g6
sg7
I103773
sg8
I0
sg9
I00
sg10
g6
sg11
g6
sg13
g6
sg14
g6
sg15
g6
sg16
g6
sg17
g6
sg18
g6
sg19
I109298
sg20
I0
sg21
I0
sg22
g6
sg23
g6
sg24
g6
sg25
I00
sg26
g6
sg27
g6
sg28
I00
sg29
g6
sg30
I213071
sg31
I0
sg32
I0
sg33
I0
sg34
g6
ssS'POWERS WILLIAM'
p163
(dp164
g3
I653
sg4
F0.0
sg5
g6
sg7
g6
sg8
F0.0
sg9
I00
sg10
I-17500
sg11
S'ken.powers@enron.com'
p165
sg13
g6
sg14
g6
sg15
I12
sg16
g6
sg17
I26
sg18
g6
sg19
I17500
sg20
F0.0
sg21
I0
sg22
g6
sg23
g6
sg24
I0
sg25
I00
sg26
I0
sg27
g6
sg28
I01
sg29
g6
sg30
g6
sg31
F0.0
sg32
F0.0
sg33
F0.0
sg34
g6
ssS'GOLD JOSEPH'
p166
(dp167
g3
g6
sg4
I0
sg5
g6
sg7
g6
sg8
I0
sg9
I00
sg10
g6
sg11
S'joe.gold@enron.com'
p168
sg13
I304805
sg14
g6
sg15
g6
sg16
g6
sg17
g6
sg18
I819288
sg19
g6
sg20
I0
sg21
I0
sg22
I750000
sg23
I877611
sg24
g6
sg25
I00
sg26
g6
sg27
I441096
sg28
I00
sg29
I272880
sg30
I2146973
sg31
I0
sg32
I0
sg33
I0
sg34
I436515
ssS'BANNANTINE JAMES M'
p169
(dp170
g3
I566
sg4
F0.06890459363957598
sg5
g6
sg7
I56301
sg8
F39.0
sg9
I00
sg10
I-5104
sg11
S'james.bannantine@enron.com'
p171
sg13
g6
sg14
I-560222
sg15
I465
sg16
g6
sg17
I29
sg18
I864523
sg19
g6
sg20
F0.06890459363957598
sg21
I0
sg22
g6
sg23
I5243487
sg24
I39
sg25
I00
sg26
I0
sg27
I1757552
sg28
I01
sg29
I477
sg30
I916197
sg31
F39.0
sg32
F0.0
sg33
F0.0
sg34
I4046157
ssS'DUNCAN JOHN H'
p172
(dp173
g3
g6
sg4
I0
sg5
g6
sg7
g6
sg8
I0
sg9
I00
sg10
I-25000
sg11
g6
sg13
g6
sg14
g6
sg15
g6
sg16
g6
sg17
g6
sg18
g6
sg19
I102492
sg20
I0
sg21
I0
sg22
g6
sg23
I371750
sg24
g6
sg25
I00
sg26
g6
sg27
g6
sg28
I00
sg29
g6
sg30
I77492
sg31
I0
sg32
I0
sg33
I0
sg34
I371750
ssS'SHAPIRO RICHARD S'
p174
(dp175
g3
I15149
sg4
F0.0048848108786058485
sg5
g6
sg7
I137767
sg8
F74.0
sg9
I00
sg10
g6
sg11
S'richard.shapiro@enron.com'
p176
sg13
g6
sg14
g6
sg15
I4527
sg16
g6
sg17
I1215
sg18
I705
sg19
g6
sg20
F0.058382753265437126
sg21
I2
sg22
I650000
sg23
I987001
sg24
I74
sg25
I01
sg26
I65
sg27
I379164
sg28
I01
sg29
I269076
sg30
I1057548
sg31
F139.0
sg32
F0.053497942386831275
sg33
F65.0
sg34
I607837
ssS'SHERRIFF JOHN R'
p177
(dp178
g3
I3187
sg4
F0.008785691873235017
sg5
g6
sg7
g6
sg8
F28.0
sg9
I00
sg10
g6
sg11
S'john.sherriff@enron.com'
p179
sg13
I554422
sg14
g6
sg15
I2103
sg16
g6
sg17
I92
sg18
I1852186
sg19
g6
sg20
F0.258785691873235
sg21
I0
sg22
I1500000
sg23
I3128982
sg24
I28
sg25
I00
sg26
I23
sg27
I1293424
sg28
I01
sg29
I428780
sg30
I4335388
sg31
F51.0
sg32
F0.25
sg33
F23.0
sg34
I1835558
ssS'SHELBY REX'
p180
(dp181
g3
I225
sg4
F0.057777777777777775
sg5
g6
sg7
I22884
sg8
F14.0
sg9
I01
sg10
I-4167
sg11
S'rex.shelby@enron.com'
p182
sg13
g6
sg14
g6
sg15
I91
sg16
g6
sg17
I39
sg18
I1573324
sg19
g6
sg20
F0.41675213675213674
sg21
I0
sg22
I200000
sg23
I2493616
sg24
I13
sg25
I00
sg26
I14
sg27
I869220
sg28
I01
sg29
I211844
sg30
I2003885
sg31
F27.0
sg32
F0.358974358974359
sg33
F13.0
sg34
I1624396
ssS'LEMAISTRE CHARLES'
p183
(dp184
g3
g6
sg4
I0
sg5
g6
sg7
g6
sg8
I0
sg9
I00
sg10
I-25000
sg11
g6
sg13
g6
sg14
g6
sg15
g6
sg16
g6
sg17
g6
sg18
g6
sg19
I112492
sg20
I0
sg21
I0
sg22
g6
sg23
I412878
sg24
g6
sg25
I00
sg26
g6
sg27
g6
sg28
I00
sg29
g6
sg30
I87492
sg31
I0
sg32
I0
sg33
I0
sg34
I412878
ssS'DEFFNER JOSEPH M'
p185
(dp186
g3
I714
sg4
F0.16106442577030813
sg5
g6
sg7
I41626
sg8
F115.0
sg9
I00
sg10
g6
sg11
S'joseph.deffner@enron.com'
p187
sg13
I335349
sg14
g6
sg15
I552
sg16
g6
sg17
I74
sg18
I25553
sg19
g6
sg20
F0.2151184798243622
sg21
I0
sg22
I600000
sg23
I159211
sg24
I115
sg25
I00
sg26
I4
sg27
I141833
sg28
I01
sg29
I206121
sg30
I1208649
sg31
F119.0
sg32
F0.05405405405405406
sg33
F4.0
sg34
I17378
ssS'KISHKILL JOSEPH G'
p188
(dp189
g3
g6
sg4
I0
sg5
g6
sg7
I116335
sg8
I0
sg9
I00
sg10
I-51042
sg11
S'joe.kishkill@enron.com'
p190
sg13
g6
sg14
g6
sg15
g6
sg16
g6
sg17
g6
sg18
I465357
sg19
g6
sg20
I0
sg21
I0
sg22
g6
sg23
I1034346
sg24
g6
sg25
I00
sg26
g6
sg27
I1034346
sg28
I00
sg29
I174246
sg30
I704896
sg31
I0
sg32
I0
sg33
I0
sg34
g6
ssS'WHALLEY LAWRENCE G'
p191
(dp192
g3
I6019
sg4
F0.03090214321315833
sg5
g6
sg7
I57838
sg8
F186.0
sg9
I00
sg10
g6
sg11
S'greg.whalley@enron.com'
p193
sg13
I808346
sg14
g6
sg15
I3920
sg16
g6
sg17
I556
sg18
I301026
sg19
g6
sg20
F0.07406761083905761
sg21
I0
sg22
I3000000
sg23
I6079137
sg24
I186
sg25
I00
sg26
I24
sg27
I2796177
sg28
I01
sg29
I510364
sg30
I4677574
sg31
F210.0
sg32
F0.04316546762589928
sg33
F24.0
sg34
I3282960
ssS'MCCONNELL MICHAEL S'
p194
(dp195
g3
I3329
sg4
F0.02763592670471613
sg5
g6
sg7
I81364
sg8
F194.0
sg9
I00
sg10
g6
sg11
S'mike.mcconnell@enron.com'
p196
sg13
I554422
sg14
g6
sg15
I2189
sg16
g6
sg17
I2742
sg18
I540
sg19
g6
sg20
F0.09838720314527047
sg21
I2
sg22
I1100000
sg23
I3101279
sg24
I92
sg25
I01
sg26
I194
sg27
I1478269
sg28
I01
sg29
I365038
sg30
I2101364
sg31
F286.0
sg32
F0.07075127644055434
sg33
F92.0
sg34
I1623010
ssS'PIRO JIM'
p197
(dp198
g3
I58
sg4
F0.0
sg5
g6
sg7
g6
sg8
F1.0
sg9
I00
sg10
g6
sg11
S'jim.piro@enron.com'
p199
sg13
g6
sg14
g6
sg15
I3
sg16
g6
sg17
I16
sg18
g6
sg19
g6
sg20
F0.0625
sg21
I0
sg22
g6
sg23
I47304
sg24
I0
sg25
I00
sg26
I1
sg27
I47304
sg28
I01
sg29
g6
sg30
g6
sg31
F1.0
sg32
F0.0625
sg33
F0.0
sg34
g6
ssS'DELAINEY DAVID W'
p200
(dp201
g3
I3093
sg4
F0.02133850630455868
sg5
g6
sg7
I86174
sg8
F609.0
sg9
I01
sg10
g6
sg11
S'david.delainey@enron.com'
p202
sg13
I1294981
sg14
g6
sg15
I2097
sg16
g6
sg17
I3069
sg18
I1661
sg19
g6
sg20
F0.2197744789340797
sg21
I2
sg22
I3000000
sg23
I3614261
sg24
I66
sg25
I01
sg26
I609
sg27
I1323148
sg28
I01
sg29
I365163
sg30
I4747979
sg31
F675.0
sg32
F0.198435972629521
sg33
F66.0
sg34
I2291113
ssS'SULLIVAN-SHAKLOVITZ COLLEEN'
p203
(dp204
g3
g6
sg4
I0
sg5
I181993
sg7
g6
sg8
I0
sg9
I00
sg10
g6
sg11
g6
sg13
I554422
sg14
g6
sg15
g6
sg16
g6
sg17
g6
sg18
I162
sg19
g6
sg20
I0
sg21
I0
sg22
I100000
sg23
I1362375
sg24
g6
sg25
I00
sg26
g6
sg27
g6
sg28
I00
sg29
I162779
sg30
I999356
sg31
I0
sg32
I0
sg33
I0
sg34
I1362375
ssS'WROBEL BRUCE'
p205
(dp206
g3
g6
sg4
I0
sg5
g6
sg7
g6
sg8
I0
sg9
I00
sg10
g6
sg11
g6
sg13
g6
sg14
g6
sg15
g6
sg16
g6
sg17
g6
sg18
g6
sg19
g6
sg20
I0
sg21
I0
sg22
g6
sg23
I139130
sg24
g6
sg25
I00
sg26
g6
sg27
g6
sg28
I00
sg29
g6
sg30
g6
sg31
I0
sg32
I0
sg33
I0
sg34
I139130
ssS'LINDHOLM TOD A'
p207
(dp208
g3
g6
sg4
I0
sg5
I204075
sg7
I57727
sg8
I0
sg9
I00
sg10
g6
sg11
S'tod.lindholm@enron.com'
p209
sg13
I175000
sg14
g6
sg15
g6
sg16
g6
sg17
g6
sg18
I2630
sg19
g6
sg20
I0
sg21
I0
sg22
I200000
sg23
I3064208
sg24
g6
sg25
I00
sg26
g6
sg27
I514847
sg28
I00
sg29
I236457
sg30
I875889
sg31
I0
sg32
I0
sg33
I0
sg34
I2549361
ssS'MEYER JEROME J'
p210
(dp211
g3
g6
sg4
I0
sg5
g6
sg7
I2151
sg8
I0
sg9
I00
sg10
I-38346
sg11
g6
sg13
g6
sg14
g6
sg15
g6
sg16
g6
sg17
g6
sg18
g6
sg19
I38346
sg20
I0
sg21
I0
sg22
g6
sg23
g6
sg24
g6
sg25
I00
sg26
g6
sg27
g6
sg28
I00
sg29
g6
sg30
I2151
sg31
I0
sg32
I0
sg33
I0
sg34
g6
ssS'LAY KENNETH L'
p212
(dp213
g3
I4273
sg4
F0.028785396676807865
sg5
I202911
sg7
I99832
sg8
F123.0
sg9
I01
sg10
I-300000
sg11
S'kenneth.lay@enron.com'
p214
sg13
I3600000
sg14
g6
sg15
I2411
sg16
I81525000
sg17
I36
sg18
I10359729
sg19
g6
sg20
F0.47322984112125227
sg21
I0
sg22
I7000000
sg23
I49110078
sg24
I123
sg25
I00
sg26
I16
sg27
I14761694
sg28
I01
sg29
I1072321
sg30
I103559793
sg31
F139.0
sg32
F0.4444444444444444
sg33
F16.0
sg34
I34348384
ssS'BUTTS ROBERT H'
p215
(dp216
g3
g6
sg4
I0
sg5
g6
sg7
I9410
sg8
I0
sg9
I00
sg10
I-75000
sg11
S'bob.butts@enron.com'
p217
sg13
I175000
sg14
g6
sg15
g6
sg16
g6
sg17
g6
sg18
I150656
sg19
g6
sg20
I0
sg21
I0
sg22
I750000
sg23
I417619
sg24
g6
sg25
I00
sg26
g6
sg27
I417619
sg28
I00
sg29
I261516
sg30
I1271582
sg31
I0
sg32
I0
sg33
I0
sg34
g6
ssS'OLSON CINDY K'
p218
(dp219
g3
I1184
sg4
F0.016891891891891893
sg5
I77716
sg7
I63791
sg8
F20.0
sg9
I00
sg10
g6
sg11
S'cindy.olson@enron.com'
p220
sg13
I100000
sg14
g6
sg15
I856
sg16
g6
sg17
I52
sg18
I972
sg19
g6
sg20
F0.3053534303534303
sg21
I0
sg22
I750000
sg23
I2606763
sg24
I20
sg25
I00
sg26
I15
sg27
I969729
sg28
I01
sg29
I329078
sg30
I1321557
sg31
F35.0
sg32
F0.28846153846153844
sg33
F15.0
sg34
I1637034
ssS'MCDONALD REBECCA'
p221
(dp222
g3
I894
sg4
F0.06040268456375839
sg5
g6
sg7
g6
sg8
F54.0
sg9
I00
sg10
g6
sg11
S'rebecca.mcdonald@enron.com'
p223
sg13
g6
sg14
g6
sg15
I720
sg16
g6
sg17
I13
sg18
g6
sg19
g6
sg20
F0.1373257614868353
sg21
I0
sg22
g6
sg23
I1691366
sg24
I54
sg25
I00
sg26
I1
sg27
I934065
sg28
I01
sg29
g6
sg30
g6
sg31
F55.0
sg32
F0.07692307692307693
sg33
F1.0
sg34
I757301
ssS'CUMBERLAND MICHAEL S'
p224
(dp225
g3
g6
sg4
I0
sg5
g6
sg7
I22344
sg8
I0
sg9
I00
sg10
g6
sg11
g6
sg13
I275000
sg14
g6
sg15
g6
sg16
g6
sg17
g6
sg18
I713
sg19
g6
sg20
I0
sg21
I0
sg22
I325000
sg23
I207940
sg24
g6
sg25
I00
sg26
g6
sg27
I207940
sg28
I00
sg29
I184899
sg30
I807956
sg31
I0
sg32
I0
sg33
I0
sg34
g6
ssS'GAHN ROBERT S'
p226
(dp227
g3
g6
sg4
I0
sg5
I73122
sg7
I50080
sg8
I0
sg9
I00
sg10
I-1042
sg11
g6
sg13
g6
sg14
g6
sg15
g6
sg16
g6
sg17
g6
sg18
I76547
sg19
g6
sg20
I0
sg21
I0
sg22
I509870
sg23
I318607
sg24
g6
sg25
I00
sg26
g6
sg27
I235370
sg28
I00
sg29
I192008
sg30
I900585
sg31
I0
sg32
I0
sg33
I0
sg34
I83237
ssS'MCCLELLAN GEORGE'
p228
(dp229
g3
I1744
sg4
F0.02981651376146789
sg5
g6
sg7
I228763
sg8
F52.0
sg9
I00
sg10
I-125000
sg11
S'george.mcclellan@enron.com'
p230
sg13
g6
sg14
g6
sg15
I1469
sg16
g6
sg17
I49
sg18
I51587
sg19
g6
sg20
F0.02981651376146789
sg21
I0
sg22
I900000
sg23
I947861
sg24
I52
sg25
I00
sg26
I0
sg27
I441096
sg28
I01
sg29
I263413
sg30
I1318763
sg31
F52.0
sg32
F0.0
sg33
F0.0
sg34
I506765
ssS'HERMANN ROBERT J'
p231
(dp232
g3
g6
sg4
I0
sg5
g6
sg7
I48357
sg8
I0
sg9
I00
sg10
I-280000
sg11
S'robert.hermann@enron.com'
p233
sg13
I150000
sg14
g6
sg15
g6
sg16
g6
sg17
g6
sg18
I416441
sg19
g6
sg20
I0
sg21
I0
sg22
I700000
sg23
I668132
sg24
g6
sg25
I00
sg26
g6
sg27
I480632
sg28
I00
sg29
I262663
sg30
I1297461
sg31
I0
sg32
I0
sg33
I0
sg34
I187500
ssS'SCRIMSHAW MATTHEW'
p234
(dp235
g3
g6
sg4
I0
sg5
g6
sg7
g6
sg8
I0
sg9
I00
sg10
g6
sg11
S'matthew.scrimshaw@enron.com'
p236
sg13
g6
sg14
g6
sg15
g6
sg16
g6
sg17
g6
sg18
g6
sg19
g6
sg20
I0
sg21
I0
sg22
g6
sg23
I759557
sg24
g6
sg25
I00
sg26
g6
sg27
g6
sg28
I00
sg29
g6
sg30
g6
sg31
I0
sg32
I0
sg33
I0
sg34
I759557
ssS'GATHMANN WILLIAM D'
p237
(dp238
g3
g6
sg4
I0
sg5
g6
sg7
g6
sg8
I0
sg9
I00
sg10
g6
sg11
g6
sg13
g6
sg14
I-72419
sg15
g6
sg16
g6
sg17
g6
sg18
g6
sg19
g6
sg20
I0
sg21
I0
sg22
g6
sg23
I1945360
sg24
g6
sg25
I00
sg26
g6
sg27
I264013
sg28
I00
sg29
g6
sg30
g6
sg31
I0
sg32
I0
sg33
I0
sg34
I1753766
ssS'HAEDICKE MARK E'
p239
(dp240
g3
I4009
sg4
F0.04489897730107259
sg5
I2157527
sg7
I76169
sg8
F180.0
sg9
I00
sg10
I-934484
sg11
S'mark.haedicke@enron.com'
p241
sg13
I983346
sg14
I-329825
sg15
I1847
sg16
g6
sg17
I1941
sg18
I52382
sg19
g6
sg20
F0.0763260767343544
sg21
I2
sg22
I1150000
sg23
I803094
sg24
I180
sg25
I01
sg26
I61
sg27
I524169
sg28
I01
sg29
I374125
sg30
I3859065
sg31
F241.0
sg32
F0.03142709943328181
sg33
F61.0
sg34
I608750
ssS'BOWEN JR RAYMOND M'
p242
(dp243
g3
I1858
sg4
F0.07534983853606028
sg5
g6
sg7
I65907
sg8
F140.0
sg9
I01
sg10
I-833
sg11
S'raymond.bowen@enron.com'
p244
sg13
I974293
sg14
g6
sg15
I1593
sg16
g6
sg17
I27
sg18
I1621
sg19
g6
sg20
F0.6309053940916158
sg21
I0
sg22
I1350000
sg23
I252055
sg24
I140
sg25
I00
sg26
I15
sg27
I252055
sg28
I01
sg29
I278601
sg30
I2669589
sg31
F155.0
sg32
F0.5555555555555556
sg33
F15.0
sg34
g6
ssS'GILLIS JOHN'
p245
(dp246
g3
g6
sg4
I0
sg5
g6
sg7
g6
sg8
I0
sg9
I00
sg10
g6
sg11
g6
sg13
g6
sg14
g6
sg15
g6
sg16
g6
sg17
g6
sg18
g6
sg19
g6
sg20
I0
sg21
I0
sg22
g6
sg23
I85641
sg24
g6
sg25
I00
sg26
g6
sg27
I75838
sg28
I00
sg29
g6
sg30
g6
sg31
I0
sg32
I0
sg33
I0
sg34
I9803
ssS'FITZGERALD JAY L'
p247
(dp248
g3
I936
sg4
F0.0010683760683760685
sg5
g6
sg7
I23870
sg8
F8.0
sg9
I00
sg10
g6
sg11
S'jay.fitzgerald@enron.com'
p249
sg13
I556416
sg14
g6
sg15
I723
sg16
g6
sg17
I16
sg18
I285414
sg19
g6
sg20
F0.5010683760683761
sg21
I0
sg22
I350000
sg23
I1621236
sg24
I1
sg25
I00
sg26
I8
sg27
I956775
sg28
I01
sg29
I199157
sg30
I1414857
sg31
F9.0
sg32
F0.5
sg33
F1.0
sg34
I664461
ssS'MORAN MICHAEL P'
p250
(dp251
g3
I672
sg4
F0.0
sg5
g6
sg7
g6
sg8
F0.0
sg9
I00
sg10
g6
sg11
S'michael.moran@enron.com'
p252
sg13
g6
sg14
g6
sg15
I127
sg16
g6
sg17
I19
sg18
g6
sg19
g6
sg20
F0.0
sg21
I0
sg22
g6
sg23
I221141
sg24
I0
sg25
I00
sg26
I0
sg27
I161602
sg28
I01
sg29
g6
sg30
g6
sg31
F0.0
sg32
F0.0
sg33
F0.0
sg34
I59539
ssS'REDMOND BRIAN L'
p253
(dp254
g3
I1671
sg4
F0.12208258527827648
sg5
g6
sg7
I14689
sg8
F204.0
sg9
I00
sg10
g6
sg11
S'brian.redmond@enron.com'
p255
sg13
g6
sg14
g6
sg15
I1063
sg16
g6
sg17
I221
sg18
g6
sg19
g6
sg20
F0.34380204229185113
sg21
I2
sg22
g6
sg23
I7890324
sg24
I204
sg25
I00
sg26
I49
sg27
I381285
sg28
I01
sg29
I96840
sg30
I111529
sg31
F253.0
sg32
F0.22171945701357465
sg33
F49.0
sg34
I7509039
ssS'BAZELIDES PHILIP J'
p256
(dp257
g3
g6
sg4
I0
sg5
I684694
sg7
g6
sg8
I0
sg9
I00
sg10
g6
sg11
g6
sg13
I93750
sg14
g6
sg15
g6
sg16
g6
sg17
g6
sg18
I874
sg19
g6
sg20
I0
sg21
I0
sg22
g6
sg23
I1599641
sg24
g6
sg25
I00
sg26
g6
sg27
g6
sg28
I00
sg29
I80818
sg30
I860136
sg31
I0
sg32
I0
sg33
I0
sg34
I1599641
ssS'BELDEN TIMOTHY N'
p258
(dp259
g3
I7991
sg4
F0.028532098610937303
sg5
I2144013
sg7
I17355
sg8
F228.0
sg9
I01
sg10
I-2334434
sg11
S'tim.belden@enron.com'
p260
sg13
g6
sg14
g6
sg15
I5521
sg16
g6
sg17
I484
sg18
I210698
sg19
g6
sg20
F0.2516725944787059
sg21
I2
sg22
I5249999
sg23
I1110705
sg24
I228
sg25
I01
sg26
I108
sg27
I157569
sg28
I01
sg29
I213999
sg30
I5501630
sg31
F336.0
sg32
F0.2231404958677686
sg33
F108.0
sg34
I953136
ssS'DURAN WILLIAM D'
p261
(dp262
g3
I904
sg4
F0.1172566371681416
sg5
g6
sg7
I25785
sg8
F106.0
sg9
I00
sg10
g6
sg11
S'w.duran@enron.com'
p263
sg13
I1105218
sg14
g6
sg15
I599
sg16
g6
sg17
I12
sg18
I1568
sg19
g6
sg20
F0.3672566371681416
sg21
I0
sg22
I750000
sg23
I1640910
sg24
I106
sg25
I00
sg26
I3
sg27
I189041
sg28
I01
sg29
I210692
sg30
I2093263
sg31
F109.0
sg32
F0.25
sg33
F3.0
sg34
I1451869
ssS'THORN TERENCE H'
p264
(dp265
g3
I266
sg4
F0.0
sg5
I16586
sg7
I46145
sg8
F0.0
sg9
I00
sg10
g6
sg11
S'terence.thorn@enron.com'
p266
sg13
I200000
sg14
g6
sg15
I73
sg16
g6
sg17
I41
sg18
I426629
sg19
g6
sg20
F0.0
sg21
I0
sg22
g6
sg23
I4817796
sg24
I0
sg25
I00
sg26
I0
sg27
I365320
sg28
I01
sg29
I222093
sg30
I911453
sg31
F0.0
sg32
F0.0
sg33
F0.0
sg34
I4452476
ssS'FASTOW ANDREW S'
p267
(dp268
g3
g6
sg4
I0
sg5
g6
sg7
I55921
sg8
I0
sg9
I01
sg10
I-1386055
sg11
S'andrew.fastow@enron.com'
p269
sg13
I1736055
sg14
g6
sg15
g6
sg16
g6
sg17
g6
sg18
I277464
sg19
g6
sg20
I0
sg21
I0
sg22
I1300000
sg23
I1794412
sg24
g6
sg25
I00
sg26
g6
sg27
I1794412
sg28
I00
sg29
I440698
sg30
I2424083
sg31
I0
sg32
I0
sg33
I0
sg34
g6
ssS'FOY JOE'
p270
(dp271
g3
I57
sg4
F0.0
sg5
I181755
sg7
g6
sg8
F0.0
sg9
I00
sg10
g6
sg11
S'tracy.foy@enron.com'
p272
sg13
g6
sg14
g6
sg15
I2
sg16
g6
sg17
I13
sg18
g6
sg19
g6
sg20
F0.0
sg21
I0
sg22
g6
sg23
I343434
sg24
I0
sg25
I00
sg26
I0
sg27
g6
sg28
I01
sg29
g6
sg30
I181755
sg31
F0.0
sg32
F0.0
sg33
F0.0
sg34
I343434
ssS'CALGER CHRISTOPHER F'
p273
(dp274
g3
I2598
sg4
F0.07659738260200154
sg5
g6
sg7
I35818
sg8
F199.0
sg9
I01
sg10
I-262500
sg11
S'christopher.calger@enron.com'
p275
sg13
I375304
sg14
g6
sg15
I2188
sg16
g6
sg17
I144
sg18
I486
sg19
g6
sg20
F0.25020849371311266
sg21
I0
sg22
I1250000
sg23
I126027
sg24
I199
sg25
I00
sg26
I25
sg27
I126027
sg28
I01
sg29
I240189
sg30
I1639297
sg31
F224.0
sg32
F0.1736111111111111
sg33
F25.0
sg34
g6
ssS'RICE KENNETH D'
p276
(dp277
g3
I905
sg4
F0.04640883977900553
sg5
g6
sg7
I46950
sg8
F42.0
sg9
I01
sg10
I-3504386
sg11
S'ken.rice@enron.com'
p278
sg13
I1617011
sg14
g6
sg15
I864
sg16
g6
sg17
I18
sg18
I174839
sg19
g6
sg20
F0.2686310620012277
sg21
I0
sg22
I1750000
sg23
I22542539
sg24
I42
sg25
I00
sg26
I4
sg27
I2748364
sg28
I01
sg29
I420636
sg30
I505050
sg31
F46.0
sg32
F0.2222222222222222
sg33
F4.0
sg34
I19794175
ssS'KAMINSKI WINCENTY J'
p279
(dp280
g3
I4607
sg4
F0.008899500759713479
sg5
g6
sg7
I83585
sg8
F171.0
sg9
I00
sg10
g6
sg11
S'vince.kaminski@enron.com'
p281
sg13
I323466
sg14
g6
sg15
I583
sg16
g6
sg17
I14368
sg18
I4669
sg19
g6
sg20
F0.020800948421183414
sg21
I2
sg22
I400000
sg23
I976037
sg24
I41
sg25
I00
sg26
I171
sg27
I126027
sg28
I01
sg29
I275101
sg30
I1086821
sg31
F212.0
sg32
F0.011901447661469933
sg33
F41.0
sg34
I850010
ssS'LOCKHART EUGENE E'
p282
(dp283
g3
g6
sg4
I0
sg5
g6
sg7
g6
sg8
I0
sg9
I00
sg10
g6
sg11
g6
sg13
g6
sg14
g6
sg15
g6
sg16
g6
sg17
g6
sg18
g6
sg19
g6
sg20
I0
sg21
I0
sg22
g6
sg23
g6
sg24
g6
sg25
I00
sg26
g6
sg27
g6
sg28
I00
sg29
g6
sg30
g6
sg31
I0
sg32
I0
sg33
I0
sg34
g6
ssS'COX DAVID'
p284
(dp285
g3
I102
sg4
F0.0
sg5
g6
sg7
I27861
sg8
F4.0
sg9
I00
sg10
I-41250
sg11
S'chip.cox@enron.com'
p286
sg13
g6
sg14
g6
sg15
I71
sg16
g6
sg17
I33
sg18
I494
sg19
g6
sg20
F0.12121212121212122
sg21
I0
sg22
I800000
sg23
I495633
sg24
I0
sg25
I00
sg26
I4
sg27
I378082
sg28
I01
sg29
I314288
sg30
I1101393
sg31
F4.0
sg32
F0.12121212121212122
sg33
F0.0
sg34
I117551
ssS'OVERDYKE JR JERE C'
p287
(dp288
g3
g6
sg4
I0
sg5
g6
sg7
I18834
sg8
I0
sg9
I00
sg10
g6
sg11
S'jere.overdyke@enron.com'
p289
sg13
I135836
sg14
g6
sg15
g6
sg16
g6
sg17
g6
sg18
I176
sg19
g6
sg20
I0
sg21
I0
sg22
g6
sg23
I7307594
sg24
g6
sg25
I00
sg26
g6
sg27
I2041016
sg28
I00
sg29
I94941
sg30
I249787
sg31
I0
sg32
I0
sg33
I0
sg34
I5266578
ssS'PEREIRA PAULO V. FERRAZ'
p290
(dp291
g3
g6
sg4
I0
sg5
g6
sg7
I27942
sg8
I0
sg9
I00
sg10
I-101250
sg11
g6
sg13
g6
sg14
g6
sg15
g6
sg16
g6
sg17
g6
sg18
g6
sg19
I101250
sg20
I0
sg21
I0
sg22
g6
sg23
g6
sg24
g6
sg25
I00
sg26
g6
sg27
g6
sg28
I00
sg29
g6
sg30
I27942
sg31
I0
sg32
I0
sg33
I0
sg34
g6
ssS'STABLER FRANK'
p292
(dp293
g3
g6
sg4
I0
sg5
g6
sg7
I16514
sg8
I0
sg9
I00
sg10
g6
sg11
S'frank.stabler@enron.com'
p294
sg13
g6
sg14
g6
sg15
g6
sg16
g6
sg17
g6
sg18
I356071
sg19
g6
sg20
I0
sg21
I0
sg22
I500000
sg23
I511734
sg24
g6
sg25
I00
sg26
g6
sg27
I511734
sg28
I00
sg29
I239502
sg30
I1112087
sg31
I0
sg32
I0
sg33
I0
sg34
g6
ssS'SKILLING JEFFREY K'
p295
(dp296
g3
I3627
sg4
F0.0242624758753791
sg5
g6
sg7
I29336
sg8
F88.0
sg9
I01
sg10
g6
sg11
S'jeff.skilling@enron.com'
p297
sg13
I1920000
sg14
g6
sg15
I2042
sg16
g6
sg17
I108
sg18
I22122
sg19
g6
sg20
F0.3020402536531569
sg21
I0
sg22
I5600000
sg23
I26093672
sg24
I88
sg25
I00
sg26
I30
sg27
I6843672
sg28
I01
sg29
I1111258
sg30
I8682716
sg31
F118.0
sg32
F0.2777777777777778
sg33
F30.0
sg34
I19250000
ssS'BLAKE JR. NORMAN P'
p298
(dp299
g3
g6
sg4
I0
sg5
g6
sg7
I1279
sg8
I0
sg9
I00
sg10
I-113784
sg11
g6
sg13
g6
sg14
g6
sg15
g6
sg16
g6
sg17
g6
sg18
g6
sg19
I113784
sg20
I0
sg21
I0
sg22
g6
sg23
g6
sg24
g6
sg25
I00
sg26
g6
sg27
g6
sg28
I00
sg29
g6
sg30
I1279
sg31
I0
sg32
I0
sg33
I0
sg34
g6
ssS'SHERRICK JEFFREY B'
p300
(dp301
g3
I613
sg4
F0.0636215334420881
sg5
g6
sg7
g6
sg8
F39.0
sg9
I00
sg10
g6
sg11
S'jeffrey.sherrick@enron.com'
p302
sg13
g6
sg14
g6
sg15
I583
sg16
g6
sg17
I25
sg18
g6
sg19
g6
sg20
F0.7836215334420881
sg21
I0
sg22
g6
sg23
I1832468
sg24
I39
sg25
I00
sg26
I18
sg27
I405999
sg28
I01
sg29
g6
sg30
g6
sg31
F57.0
sg32
F0.72
sg33
F18.0
sg34
I1426469
ssS'PRENTICE JAMES'
p303
(dp304
g3
g6
sg4
I0
sg5
I564348
sg7
g6
sg8
I0
sg9
I00
sg10
g6
sg11
S'james.prentice@enron.com'
p305
sg13
g6
sg14
g6
sg15
g6
sg16
g6
sg17
g6
sg18
g6
sg19
g6
sg20
I0
sg21
I0
sg22
g6
sg23
I1095040
sg24
g6
sg25
I00
sg26
g6
sg27
I208809
sg28
I00
sg29
g6
sg30
I564348
sg31
I0
sg32
I0
sg33
I0
sg34
I886231
ssS'GRAY RODNEY'
p306
(dp307
g3
g6
sg4
I0
sg5
I93585
sg7
g6
sg8
I0
sg9
I00
sg10
g6
sg11
g6
sg13
I365625
sg14
g6
sg15
g6
sg16
g6
sg17
g6
sg18
I680833
sg19
g6
sg20
I0
sg21
I0
sg22
g6
sg23
g6
sg24
g6
sg25
I00
sg26
g6
sg27
g6
sg28
I00
sg29
I6615
sg30
I1146658
sg31
I0
sg32
I0
sg33
I0
sg34
g6
ssS'PICKERING MARK R'
p308
(dp309
g3
I898
sg4
F0.0077951002227171495
sg5
g6
sg7
I31653
sg8
F7.0
sg9
I00
sg10
g6
sg11
S'mark.pickering@enron.com'
p310
sg13
g6
sg14
g6
sg15
I728
sg16
I400000
sg17
I67
sg18
g6
sg19
g6
sg20
F0.0077951002227171495
sg21
I0
sg22
I300000
sg23
I28798
sg24
I7
sg25
I00
sg26
I0
sg27
g6
sg28
I01
sg29
I655037
sg30
I1386690
sg31
F7.0
sg32
F0.0
sg33
F0.0
sg34
I28798
ssS'THE TRAVEL AGENCY IN THE PARK'
p311
(dp312
g3
g6
sg4
I0
sg5
g6
sg7
g6
sg8
I0
sg9
I00
sg10
g6
sg11
g6
sg13
g6
sg14
g6
sg15
g6
sg16
g6
sg17
g6
sg18
I362096
sg19
g6
sg20
I0
sg21
I0
sg22
g6
sg23
g6
sg24
g6
sg25
I00
sg26
g6
sg27
g6
sg28
I00
sg29
g6
sg30
I362096
sg31
I0
sg32
I0
sg33
I0
sg34
g6
ssS'NOLES JAMES L'
p313
(dp314
g3
g6
sg4
I0
sg5
I774401
sg7
g6
sg8
I0
sg9
I00
sg10
g6
sg11
g6
sg13
g6
sg14
I-94556
sg15
g6
sg16
g6
sg17
g6
sg18
g6
sg19
g6
sg20
I0
sg21
I0
sg22
g6
sg23
I368705
sg24
g6
sg25
I00
sg26
g6
sg27
I463261
sg28
I00
sg29
g6
sg30
I774401
sg31
I0
sg32
I0
sg33
I0
sg34
g6
ssS'KEAN STEVEN J'
p315
(dp316
g3
I12754
sg4
F0.010976948408342482
sg5
g6
sg7
I41953
sg8
F387.0
sg9
I00
sg10
g6
sg11
S'steven.kean@enron.com'
p317
sg13
I300000
sg14
g6
sg15
I3639
sg16
g6
sg17
I6759
sg18
I1231
sg19
g6
sg20
F0.06823393908743702
sg21
I2
sg22
I1000000
sg23
I6153642
sg24
I140
sg25
I01
sg26
I387
sg27
I4131594
sg28
I01
sg29
I404338
sg30
I1747522
sg31
F527.0
sg32
F0.05725699067909454
sg33
F140.0
sg34
I2022048
ssS'FOWLER PEGGY'
p318
(dp319
g3
I517
sg4
F0.0
sg5
g6
sg7
g6
sg8
F0.0
sg9
I00
sg10
g6
sg11
S'kulvinder.fowler@enron.com'
p320
sg13
g6
sg14
g6
sg15
I10
sg16
g6
sg17
I36
sg18
g6
sg19
g6
sg20
F0.0
sg21
I0
sg22
g6
sg23
I1884748
sg24
I0
sg25
I00
sg26
I0
sg27
I560170
sg28
I01
sg29
g6
sg30
g6
sg31
F0.0
sg32
F0.0
sg33
F0.0
sg34
I1324578
ssS'WASAFF GEORGE'
p321
(dp322
g3
I400
sg4
F0.055
sg5
I831299
sg7
g6
sg8
F22.0
sg9
I00
sg10
I-583325
sg11
S'george.wasaff@enron.com'
p323
sg13
I200000
sg14
g6
sg15
I337
sg16
g6
sg17
I30
sg18
I1425
sg19
g6
sg20
F0.28833333333333333
sg21
I0
sg22
I325000
sg23
I2056427
sg24
I22
sg25
I00
sg26
I7
sg27
I388167
sg28
I01
sg29
I259996
sg30
I1034395
sg31
F29.0
sg32
F0.23333333333333334
sg33
F7.0
sg34
I1668260
ssS'WHITE JR THOMAS E'
p324
(dp325
g3
g6
sg4
I0
sg5
g6
sg7
I81353
sg8
I0
sg9
I00
sg10
g6
sg11
S'thomas.white@enron.com'
p326
sg13
g6
sg14
g6
sg15
g6
sg16
g6
sg17
g6
sg18
I1085463
sg19
g6
sg20
I0
sg21
I0
sg22
I450000
sg23
I15144123
sg24
g6
sg25
I00
sg26
g6
sg27
I13847074
sg28
I00
sg29
I317543
sg30
I1934359
sg31
I0
sg32
I0
sg33
I0
sg34
I1297049
ssS'CHRISTODOULOU DIOMEDES'
p327
(dp328
g3
g6
sg4
I0
sg5
g6
sg7
g6
sg8
I0
sg9
I00
sg10
g6
sg11
S'diomedes.christodoulou@enron.com'
p329
sg13
g6
sg14
g6
sg15
g6
sg16
g6
sg17
g6
sg18
g6
sg19
g6
sg20
I0
sg21
I0
sg22
g6
sg23
I6077885
sg24
g6
sg25
I00
sg26
g6
sg27
I950730
sg28
I00
sg29
g6
sg30
g6
sg31
I0
sg32
I0
sg33
I0
sg34
I5127155
ssS'ALLEN PHILLIP K'
p330
(dp331
g3
I2902
sg4
F0.016195727084769126
sg5
I2869717
sg7
I13868
sg8
F65.0
sg9
I00
sg10
I-3081055
sg11
S'phillip.allen@enron.com'
p332
sg13
I304805
sg14
I-126027
sg15
I1407
sg16
g6
sg17
I2195
sg18
I152
sg19
g6
sg20
F0.04580848334900603
sg21
I2
sg22
I4175000
sg23
I1729541
sg24
I47
sg25
I00
sg26
I65
sg27
I126027
sg28
I01
sg29
I201955
sg30
I4484442
sg31
F112.0
sg32
F0.029612756264236904
sg33
F47.0
sg34
I1729541
ssS'SHARP VICTORIA T'
p333
(dp334
g3
I3136
sg4
F0.007653061224489796
sg5
I187469
sg7
I116337
sg8
F24.0
sg9
I00
sg10
g6
sg11
S'vicki.sharp@enron.com'
p335
sg13
I422158
sg14
g6
sg15
I2477
sg16
g6
sg17
I136
sg18
I2401
sg19
g6
sg20
F0.05177070828331333
sg21
I0
sg22
I600000
sg23
I494136
sg24
I24
sg25
I00
sg26
I6
sg27
I213063
sg28
I01
sg29
I248146
sg30
I1576511
sg31
F30.0
sg32
F0.04411764705882353
sg33
F6.0
sg34
I281073
ssS'JAEDICKE ROBERT'
p336
(dp337
g3
g6
sg4
I0
sg5
g6
sg7
g6
sg8
I0
sg9
I00
sg10
I-25000
sg11
g6
sg13
g6
sg14
I-44093
sg15
g6
sg16
g6
sg17
g6
sg18
g6
sg19
I108750
sg20
I0
sg21
I0
sg22
g6
sg23
I431750
sg24
g6
sg25
I00
sg26
g6
sg27
I44093
sg28
I00
sg29
g6
sg30
I83750
sg31
I0
sg32
I0
sg33
I0
sg34
I431750
ssS'WINOKUR JR. HERBERT S'
p338
(dp339
g3
g6
sg4
I0
sg5
g6
sg7
I1413
sg8
I0
sg9
I00
sg10
I-25000
sg11
g6
sg13
g6
sg14
g6
sg15
g6
sg16
g6
sg17
g6
sg18
g6
sg19
I108579
sg20
I0
sg21
I0
sg22
g6
sg23
g6
sg24
g6
sg25
I00
sg26
g6
sg27
g6
sg28
I00
sg29
g6
sg30
I84992
sg31
I0
sg32
I0
sg33
I0
sg34
g6
ssS'BROWN MICHAEL'
p340
(dp341
g3
I1486
sg4
F0.008748317631224764
sg5
g6
sg7
I49288
sg8
F13.0
sg9
I00
sg10
g6
sg11
S'michael.brown@enron.com'
p342
sg13
g6
sg14
g6
sg15
I761
sg16
g6
sg17
I41
sg18
g6
sg19
g6
sg20
F0.03313856153366379
sg21
I0
sg22
g6
sg23
g6
sg24
I13
sg25
I00
sg26
I1
sg27
g6
sg28
I01
sg29
g6
sg30
I49288
sg31
F14.0
sg32
F0.024390243902439025
sg33
F1.0
sg34
g6
ssS'BADUM JAMES P'
p343
(dp344
g3
g6
sg4
I0
sg5
I178980
sg7
I3486
sg8
I0
sg9
I00
sg10
g6
sg11
g6
sg13
g6
sg14
g6
sg15
g6
sg16
g6
sg17
g6
sg18
g6
sg19
g6
sg20
I0
sg21
I0
sg22
g6
sg23
I257817
sg24
g6
sg25
I00
sg26
g6
sg27
g6
sg28
I00
sg29
g6
sg30
I182466
sg31
I0
sg32
I0
sg33
I0
sg34
I257817
ssS'HUGHES JAMES A'
p345
(dp346
g3
I719
sg4
F0.048678720445062586
sg5
g6
sg7
g6
sg8
F35.0
sg9
I00
sg10
g6
sg11
S'james.hughes@enron.com'
p347
sg13
g6
sg14
g6
sg15
I589
sg16
g6
sg17
I34
sg18
g6
sg19
g6
sg20
F0.19573754397447435
sg21
I0
sg22
g6
sg23
I1118394
sg24
I35
sg25
I00
sg26
I5
sg27
I363428
sg28
I01
sg29
g6
sg30
g6
sg31
F40.0
sg32
F0.14705882352941177
sg33
F5.0
sg34
I754966
ssS'REYNOLDS LAWRENCE'
p348
(dp349
g3
g6
sg4
I0
sg5
I51365
sg7
I8409
sg8
I0
sg9
I00
sg10
I-200000
sg11
g6
sg13
I156250
sg14
I-140264
sg15
g6
sg16
g6
sg17
g6
sg18
I202052
sg19
g6
sg20
I0
sg21
I0
sg22
I100000
sg23
I4221891
sg24
g6
sg25
I00
sg26
g6
sg27
I201483
sg28
I00
sg29
I76399
sg30
I394475
sg31
I0
sg32
I0
sg33
I0
sg34
I4160672
ssS'DIMICHELE RICHARD G'
p350
(dp351
g3
g6
sg4
I0
sg5
g6
sg7
I35812
sg8
I0
sg9
I00
sg10
g6
sg11
S'richard.dimichele@enron.com'
p352
sg13
I694862
sg14
g6
sg15
g6
sg16
g6
sg17
g6
sg18
I374689
sg19
g6
sg20
I0
sg21
I0
sg22
I1000000
sg23
I8317782
sg24
g6
sg25
I00
sg26
g6
sg27
I126027
sg28
I00
sg29
I262788
sg30
I2368151
sg31
I0
sg32
I0
sg33
I0
sg34
I8191755
ssS'BHATNAGAR SANJAY'
p353
(dp354
g3
I523
sg4
F0.0
sg5
g6
sg7
g6
sg8
F1.0
sg9
I00
sg10
g6
sg11
S'sanjay.bhatnagar@enron.com'
p355
sg13
g6
sg14
I15456290
sg15
I463
sg16
g6
sg17
I29
sg18
I137864
sg19
I137864
sg20
F0.034482758620689655
sg21
I0
sg22
g6
sS'total_stock_value'
p356
S'NaN'
p357
sg24
I0
sg25
I00
sg26
I1
sg27
I-2604490
sg28
I01
sg29
g6
sg30
I15456290
sg31
F1.0
sg32
F0.034482758620689655
sg33
F0.0
sg34
I2604490
ssS'CARTER REBECCA C'
p358
(dp359
g3
I312
sg4
F0.09294871794871795
sg5
g6
sg7
g6
sg8
F29.0
sg9
I00
sg10
I-159792
sg11
S'rebecca.carter@enron.com'
p360
sg13
I75000
sg14
I-307301
sg15
I196
sg16
g6
sg17
I15
sg18
I540
sg19
g6
sg20
F0.5596153846153846
sg21
I0
sg22
I300000
sg23
g6
sg24
I29
sg25
I00
sg26
I7
sg27
I307301
sg28
I01
sg29
I261809
sg30
I477557
sg31
F36.0
sg32
F0.4666666666666667
sg33
F7.0
sg34
g6
ssS'BUCHANAN HAROLD G'
p361
(dp362
g3
I1088
sg4
F0.0
sg5
g6
sg7
I600
sg8
F0.0
sg9
I00
sg10
g6
sg11
S'john.buchanan@enron.com'
p363
sg13
I304805
sg14
g6
sg15
I23
sg16
g6
sg17
I125
sg18
I1215
sg19
g6
sg20
F0.0
sg21
I0
sg22
I500000
sg23
I1014505
sg24
I0
sg25
I00
sg26
I0
sg27
I189041
sg28
I01
sg29
I248017
sg30
I1054637
sg31
F0.0
sg32
F0.0
sg33
F0.0
sg34
I825464
ssS'YEAP SOON'
p364
(dp365
g3
g6
sg4
I0
sg5
g6
sg7
I55097
sg8
I0
sg9
I00
sg10
g6
sg11
g6
sg13
g6
sg14
g6
sg15
g6
sg16
g6
sg17
g6
sg18
g6
sg19
g6
sg20
I0
sg21
I0
sg22
g6
sg23
I192758
sg24
g6
sg25
I00
sg26
g6
sg27
g6
sg28
I00
sg29
g6
sg30
I55097
sg31
I0
sg32
I0
sg33
I0
sg34
I192758
ssS'MURRAY JULIA H'
p366
(dp367
g3
I2192
sg4
F0.005018248175182482
sg5
g6
sg7
I57580
sg8
F11.0
sg9
I00
sg10
g6
sg11
S'julia.murray@enron.com'
p368
sg13
I125000
sg14
g6
sg15
I395
sg16
g6
sg17
I45
sg18
I330
sg19
g6
sg20
F0.04946269261962693
sg21
I0
sg22
I400000
sg23
I597461
sg24
I11
sg25
I00
sg26
I2
sg27
I196983
sg28
I01
sg29
I229284
sg30
I812194
sg31
F13.0
sg32
F0.044444444444444446
sg33
F2.0
sg34
I400478
ssS'GARLAND C KEVIN'
p369
(dp370
g3
I209
sg4
F0.04784688995215311
sg5
g6
sg7
I48405
sg8
F27.0
sg9
I00
sg10
g6
sg11
S'kevin.garland@enron.com'
p371
sg13
I375304
sg14
g6
sg15
I178
sg16
g6
sg17
I44
sg18
I60814
sg19
g6
sg20
F0.6614832535885168
sg21
I0
sg22
I850000
sg23
I896153
sg24
I10
sg25
I00
sg26
I27
sg27
I259907
sg28
I01
sg29
I231946
sg30
I1566469
sg31
F37.0
sg32
F0.6136363636363636
sg33
F10.0
sg34
I636246
ssS'DODSON KEITH'
p372
(dp373
g3
I176
sg4
F0.056818181818181816
sg5
g6
sg7
I28164
sg8
F10.0
sg9
I00
sg10
g6
sg11
S'keith.dodson@enron.com'
p374
sg13
g6
sg14
g6
sg15
I114
sg16
g6
sg17
I14
sg18
I774
sg19
g6
sg20
F0.27110389610389607
sg21
I0
sg22
I70000
sg23
g6
sg24
I10
sg25
I00
sg26
I3
sg27
g6
sg28
I01
sg29
I221003
sg30
I319941
sg31
F13.0
sg32
F0.21428571428571427
sg33
F3.0
sg34
g6
ssS'YEAGER F SCOTT'
p375
(dp376
g3
g6
sg4
I0
sg5
g6
sg7
I53947
sg8
I0
sg9
I01
sg10
g6
sg11
S'scott.yeager@enron.com'
p377
sg13
g6
sg14
g6
sg15
g6
sg16
g6
sg17
g6
sg18
I147950
sg19
g6
sg20
I0
sg21
I0
sg22
g6
sg23
I11884758
sg24
g6
sg25
I00
sg26
g6
sg27
I3576206
sg28
I00
sg29
I158403
sg30
I360300
sg31
I0
sg32
I0
sg33
I0
sg34
I8308552
ssS'HIRKO JOSEPH'
p378
(dp379
g3
g6
sg4
I0
sg5
I10259
sg7
I77978
sg8
I0
sg9
I01
sg10
g6
sg11
S'joe.hirko@enron.com'
p380
sg13
g6
sg14
g6
sg15
g6
sg16
g6
sg17
g6
sg18
I2856
sg19
g6
sg20
I0
sg21
I0
sg22
g6
sg23
I30766064
sg24
g6
sg25
I00
sg26
g6
sg27
g6
sg28
I00
sg29
g6
sg30
I91093
sg31
I0
sg32
I0
sg33
I0
sg34
I30766064
ssS'DIETRICH JANET R'
p381
(dp382
g3
I2572
sg4
F0.11858475894245724
sg5
g6
sg7
I3475
sg8
F305.0
sg9
I00
sg10
g6
sg11
S'janet.dietrich@enron.com'
p383
sg13
I556416
sg14
g6
sg15
I1902
sg16
g6
sg17
I63
sg18
I473
sg19
g6
sg20
F0.34080698116467945
sg21
I0
sg22
I600000
sg23
I1865087
sg24
I305
sg25
I00
sg26
I14
sg27
I315068
sg28
I01
sg29
I250100
sg30
I1410464
sg31
F319.0
sg32
F0.2222222222222222
sg33
F14.0
sg34
I1550019
ssS'DERRICK JR. JAMES V'
p384
(dp385
g3
I2181
sg4
F0.029344337459880788
sg5
g6
sg7
I51124
sg8
F64.0
sg9
I00
sg10
I-1284000
sg11
S'james.derrick@enron.com'
p386
sg13
I484000
sg14
I-1787380
sg15
I1401
sg16
g6
sg17
I909
sg18
I7482
sg19
g6
sg20
F0.05134653767990279
sg21
I0
sg22
I800000
sg23
I8831913
sg24
I64
sg25
I00
sg26
I20
sg27
I1787380
sg28
I01
sg29
I492375
sg30
I550981
sg31
F84.0
sg32
F0.022002200220022004
sg33
F20.0
sg34
I8831913
ssS'FREVERT MARK A'
p387
(dp388
g3
I3275
sg4
F0.07389312977099237
sg5
I6426990
sg7
I86987
sg8
F242.0
sg9
I00
sg10
I-3367011
sg11
S'mark.frevert@enron.com'
p389
sg13
I1617011
sg14
g6
sg15
I2979
sg16
I2000000
sg17
I21
sg18
I7427621
sg19
g6
sg20
F0.3596074154852781
sg21
I0
sg22
I2000000
sg23
I14622185
sg24
I242
sg25
I00
sg26
I6
sg27
I4188667
sg28
I01
sg29
I1060932
sg30
I17252530
sg31
F248.0
sg32
F0.2857142857142857
sg33
F6.0
sg34
I10433518
ssS'PAI LOU L'
p390
(dp391
g3
g6
sg4
I0
sg5
g6
sg7
I32047
sg8
I0
sg9
I00
sg10
g6
sg11
S'lou.pai@enron.com'
p392
sg13
g6
sg14
g6
sg15
g6
sg16
g6
sg17
g6
sg18
I1829457
sg19
g6
sg20
I0
sg21
I0
sg22
I1000000
sg23
I23817930
sg24
g6
sg25
I00
sg26
g6
sg27
I8453763
sg28
I00
sg29
I261879
sg30
I3123383
sg31
I0
sg32
I0
sg33
I0
sg34
I15364167
ssS'BAY FRANKLIN R'
p393
(dp394
g3
g6
sg4
I0
sg5
I260455
sg7
I129142
sg8
I0
sg9
I00
sg10
I-201641
sg11
S'frank.bay@enron.com'
p395
sg13
g6
sg14
I-82782
sg15
g6
sg16
g6
sg17
g6
sg18
I69
sg19
g6
sg20
I0
sg21
I0
sg22
I400000
sg23
I63014
sg24
g6
sg25
I00
sg26
g6
sg27
I145796
sg28
I00
sg29
I239671
sg30
I827696
sg31
I0
sg32
I0
sg33
I0
sg34
g6
ssS'HAYSLETT RODERICK J'
p396
(dp397
g3
I2649
sg4
F0.01321253303133258
sg5
g6
sg7
g6
sg8
F38.0
sg9
I00
sg10
g6
sg11
S'rod.hayslett@enron.com'
p398
sg13
g6
sg14
g6
sg15
I571
sg16
g6
sg17
I1061
sg18
g6
sg19
g6
sg20
F0.04902780164584719
sg21
I2
sg22
g6
sg23
I346663
sg24
I35
sg25
I00
sg26
I38
sg27
I346663
sg28
I01
sg29
g6
sg30
g6
sg31
F73.0
sg32
F0.03581526861451461
sg33
F35.0
sg34
g6
ssS'FUGH JOHN L'
p399
(dp400
g3
g6
sg4
I0
sg5
I50591
sg7
g6
sg8
I0
sg9
I00
sg10
g6
sg11
g6
sg13
g6
sg14
g6
sg15
g6
sg16
g6
sg17
g6
sg18
g6
sg19
g6
sg20
I0
sg21
I0
sg22
g6
sg23
I176378
sg24
g6
sg25
I00
sg26
g6
sg27
g6
sg28
I00
sg29
g6
sg30
I50591
sg31
I0
sg32
I0
sg33
I0
sg34
I176378
ssS'FALLON JAMES B'
p401
(dp402
g3
I1755
sg4
F0.023931623931623933
sg5
g6
sg7
I95924
sg8
F42.0
sg9
I00
sg10
g6
sg11
S'jim.fallon@enron.com'
p403
sg13
I374347
sg14
g6
sg15
I1604
sg16
g6
sg17
I75
sg18
I401481
sg19
g6
sg20
F0.5172649572649572
sg21
I2
sg22
I2500000
sg23
I2332399
sg24
I42
sg25
I00
sg26
I37
sg27
I1392142
sg28
I01
sg29
I304588
sg30
I3676340
sg31
F79.0
sg32
F0.49333333333333335
sg33
F37.0
sg34
I940257
ssS'KOENIG MARK E'
p404
(dp405
g3
I2374
sg4
F0.02232518955349621
sg5
g6
sg7
I127017
sg8
F53.0
sg9
I01
sg10
g6
sg11
S'mark.koenig@enron.com'
p406
sg13
I300000
sg14
g6
sg15
I2271
sg16
g6
sg17
I61
sg18
I150458
sg19
g6
sg20
F0.2682268288977585
sg21
I0
sg22
I700000
sg23
I1920055
sg24
I53
sg25
I00
sg26
I15
sg27
I1248318
sg28
I01
sg29
I309946
sg30
I1587421
sg31
F68.0
sg32
F0.2459016393442623
sg33
F15.0
sg34
I671737
ssS'SAVAGE FRANK'
p407
(dp408
g3
g6
sg4
I0
sg5
g6
sg7
g6
sg8
I0
sg9
I00
sg10
I-121284
sg11
g6
sg13
g6
sg14
g6
sg15
g6
sg16
g6
sg17
g6
sg18
g6
sg19
I125034
sg20
I0
sg21
I0
sg22
g6
sg23
g6
sg24
g6
sg25
I00
sg26
g6
sg27
g6
sg28
I00
sg29
g6
sg30
I3750
sg31
I0
sg32
I0
sg33
I0
sg34
g6
ssS'IZZO LAWRENCE L'
p409
(dp410
g3
I496
sg4
F0.056451612903225805
sg5
g6
sg7
I28093
sg8
F28.0
sg9
I00
sg10
g6
sg11
S'larry.izzo@enron.com'
p411
sg13
I312500
sg14
g6
sg15
I437
sg16
g6
sg17
I19
sg18
I1553729
sg19
g6
sg20
F0.3196095076400679
sg21
I0
sg22
g6
sg23
I5819980
sg24
I28
sg25
I00
sg26
I5
sg27
I3654808
sg28
I01
sg29
I85274
sg30
I1979596
sg31
F33.0
sg32
F0.2631578947368421
sg33
F5.0
sg34
I2165172
ssS'TILNEY ELIZABETH A'
p412
(dp413
g3
I460
sg4
F0.021739130434782608
sg5
g6
sg7
g6
sg8
F11.0
sg9
I00
sg10
I-575000
sg11
S'elizabeth.tilney@enron.com'
p414
sg13
I275000
sg14
g6
sg15
I379
sg16
g6
sg17
I19
sg18
I152055
sg19
g6
sg20
F0.6006864988558352
sg21
I0
sg22
I300000
sg23
I1168042
sg24
I10
sg25
I00
sg26
I11
sg27
I576792
sg28
I01
sg29
I247338
sg30
I399393
sg31
F21.0
sg32
F0.5789473684210527
sg33
F10.0
sg34
I591250
ssS'MARTIN AMANDA K'
p415
(dp416
g3
I1522
sg4
F0.005256241787122208
sg5
I85430
sg7
I8211
sg8
F8.0
sg9
I00
sg10
g6
sg11
S'a..martin@enron.com'
p417
sg13
I5145434
sg14
g6
sg15
I477
sg16
g6
sg17
I230
sg18
I2818454
sg19
g6
sg20
F0.005256241787122208
sg21
I0
sg22
g6
sg23
I2070306
sg24
I8
sg25
I00
sg26
I0
sg27
g6
sg28
I01
sg29
I349487
sg30
I8407016
sg31
F8.0
sg32
F0.0
sg33
F0.0
sg34
I2070306
ssS'BUY RICHARD B'
p418
(dp419
g3
I3523
sg4
F0.04428044280442804
sg5
I649584
sg7
g6
sg8
F156.0
sg9
I00
sg10
I-694862
sg11
S'rick.buy@enron.com'
p420
sg13
I769862
sg14
g6
sg15
I2333
sg16
g6
sg17
I1053
sg18
I400572
sg19
g6
sg20
F0.11170684356416213
sg21
I2
sg22
I900000
sg23
I3444470
sg24
I156
sg25
I01
sg26
I71
sg27
I901657
sg28
I01
sg29
I330546
sg30
I2355702
sg31
F227.0
sg32
F0.06742640075973409
sg33
F71.0
sg34
I2542813
ssS'GRAMM WENDY L'
p421
(dp422
g3
g6
sg4
I0
sg5
g6
sg7
g6
sg8
I0
sg9
I00
sg10
g6
sg11
g6
sg13
g6
sg14
g6
sg15
g6
sg16
g6
sg17
g6
sg18
g6
sg19
I119292
sg20
I0
sg21
I0
sg22
g6
sg23
g6
sg24
g6
sg25
I00
sg26
g6
sg27
g6
sg28
I00
sg29
g6
sg30
I119292
sg31
I0
sg32
I0
sg33
I0
sg34
g6
ssS'CAUSEY RICHARD A'
p423
(dp424
g3
I1892
sg4
F0.0306553911205074
sg5
g6
sg7
I30674
sg8
F58.0
sg9
I01
sg10
I-235000
sg11
S'richard.causey@enron.com'
p425
sg13
I350000
sg14
g6
sg15
I1585
sg16
g6
sg17
I49
sg18
I307895
sg19
g6
sg20
F0.2755533503041809
sg21
I0
sg22
I1000000
sg23
I2502063
sg24
I58
sg25
I00
sg26
I12
sg27
I2502063
sg28
I01
sg29
I415189
sg30
I1868758
sg31
F70.0
sg32
F0.24489795918367346
sg33
F12.0
sg34
g6
ssS'TAYLOR MITCHELL S'
p426
(dp427
g3
I533
sg4
F0.0
sg5
I227449
sg7
g6
sg8
F0.0
sg9
I00
sg10
g6
sg11
S'mitchell.taylor@enron.com'
p428
sg13
g6
sg14
g6
sg15
I300
sg16
g6
sg17
I29
sg18
g6
sg19
g6
sg20
F0.0
sg21
I0
sg22
I600000
sg23
I3745048
sg24
I0
sg25
I00
sg26
I0
sg27
I563798
sg28
I01
sg29
I265214
sg30
I1092663
sg31
F0.0
sg32
F0.0
sg33
F0.0
sg34
I3181250
ssS'DONAHUE JR JEFFREY M'
p429
(dp430
g3
I865
sg4
F0.21734104046242775
sg5
g6
sg7
I96268
sg8
F188.0
sg9
I00
sg10
I-300000
sg11
S'jeff.donahue@enron.com'
p431
sg13
g6
sg14
g6
sg15
I772
sg16
g6
sg17
I22
sg18
I891
sg19
g6
sg20
F0.7173410404624277
sg21
I0
sg22
I800000
sg23
I1080988
sg24
I188
sg25
I00
sg26
I11
sg27
I315068
sg28
I01
sg29
I278601
sg30
I875760
sg31
F199.0
sg32
F0.5
sg33
F11.0
sg34
I765920
ssS'GLISAN JR BEN F'
p432
(dp433
g3
I873
sg4
F0.05956471935853379
sg5
g6
sg7
I125978
sg8
F52.0
sg9
I01
sg10
g6
sg11
S'ben.glisan@enron.com'
p434
sg13
I71023
sg14
g6
sg15
I874
sg16
g6
sg17
I16
sg18
I200308
sg19
g6
sg20
F0.4345647193585338
sg21
I0
sg22
I600000
sg23
I778546
sg24
I52
sg25
I00
sg26
I6
sg27
I393818
sg28
I01
sg29
I274975
sg30
I1272284
sg31
F58.0
sg32
F0.375
sg33
F6.0
sg34
I384728
ss.